;--------------------------------------------------------
; File Created by SDCC : free open source ANSI-C Compiler
; Version 3.6.3 #9771 (MSVC)
;--------------------------------------------------------
	.module expf
	.optsdcc -mmcs51 --model-large --xstack
	
;--------------------------------------------------------
; Public variables in this module
;--------------------------------------------------------
	.globl _ldexpf
	.globl _expf
;--------------------------------------------------------
; special function registers
;--------------------------------------------------------
	.area RSEG    (ABS,DATA)
	.org 0x0000
;--------------------------------------------------------
; special function bits
;--------------------------------------------------------
	.area RSEG    (ABS,DATA)
	.org 0x0000
;--------------------------------------------------------
; overlayable register banks
;--------------------------------------------------------
	.area REG_BANK_0	(REL,OVR,DATA)
	.ds 8
;--------------------------------------------------------
; internal ram data
;--------------------------------------------------------
	.area DSEG    (DATA)
;--------------------------------------------------------
; overlayable items in internal ram 
;--------------------------------------------------------
;--------------------------------------------------------
; indirectly addressable internal ram data
;--------------------------------------------------------
	.area ISEG    (DATA)
;--------------------------------------------------------
; absolute internal ram data
;--------------------------------------------------------
	.area IABS    (ABS,DATA)
	.area IABS    (ABS,DATA)
;--------------------------------------------------------
; bit data
;--------------------------------------------------------
	.area BSEG    (BIT)
;--------------------------------------------------------
; paged external ram data
;--------------------------------------------------------
	.area PSEG    (PAG,XDATA)
;--------------------------------------------------------
; external ram data
;--------------------------------------------------------
	.area XSEG    (XDATA)
;--------------------------------------------------------
; absolute external ram data
;--------------------------------------------------------
	.area XABS    (ABS,XDATA)
;--------------------------------------------------------
; external initialized ram data
;--------------------------------------------------------
	.area XISEG   (XDATA)
	.area HOME    (CODE)
	.area GSINIT0 (CODE)
	.area GSINIT1 (CODE)
	.area GSINIT2 (CODE)
	.area GSINIT3 (CODE)
	.area GSINIT4 (CODE)
	.area GSINIT5 (CODE)
	.area GSINIT  (CODE)
	.area GSFINAL (CODE)
	.area CSEG    (CODE)
;--------------------------------------------------------
; global & static initialisations
;--------------------------------------------------------
	.area HOME    (CODE)
	.area GSINIT  (CODE)
	.area GSFINAL (CODE)
	.area GSINIT  (CODE)
;--------------------------------------------------------
; Home
;--------------------------------------------------------
	.area HOME    (CODE)
	.area HOME    (CODE)
;--------------------------------------------------------
; code
;--------------------------------------------------------
	.area CSEG    (CODE)
;------------------------------------------------------------
;Allocation info for local variables in function 'expf'
;------------------------------------------------------------
;x                         Allocated to stack - _bpx +0
;n                         Allocated to stack - _bpx +4
;xn                        Allocated to stack - _bpx +6
;g                         Allocated to stack - _bpx +10
;r                         Allocated to stack - _bpx +6
;z                         Allocated to stack - _bpx +18
;y                         Allocated to stack - _bpx +10
;sign                      Allocated to stack - _bpx +14
;sloc0                     Allocated to stack - _bp +5
;sloc1                     Allocated to stack - _bp +11
;sloc2                     Allocated to stack - _bp +1
;sloc3                     Allocated to stack - _bp +7
;------------------------------------------------------------
;	expf.c:331: float expf(float x) _FLOAT_FUNC_REENTRANT
;	-----------------------------------------
;	 function expf
;	-----------------------------------------
_expf:
	ar7 = 0x07
	ar6 = 0x06
	ar5 = 0x05
	ar4 = 0x04
	ar3 = 0x03
	ar2 = 0x02
	ar1 = 0x01
	ar0 = 0x00
	mov	r0,_spx
	inc	_spx
	xch	a,_bpx
	movx	@r0,a
	inc	r0
	mov	a,r0
	xch	a,_bpx
	push	_bp
	mov	_bp,sp
	xch	a,r0
	mov	a,sp
	add	a,#0x0e
	mov	sp,a
	mov	a,_spx
	add	a,#0x0f
	mov	_spx,a
	xch	a,r0
	mov	r7,dpl
	mov	r6,dph
	mov	r5,b
	mov	r4,a
	mov	r0,_bpx
	mov	a,r7
	movx	@r0,a
	inc	r0
	mov	a,r6
	movx	@r0,a
	inc	r0
	mov	a,r5
	movx	@r0,a
	inc	r0
	mov	a,r4
	movx	@r0,a
;	expf.c:337: if(x>=0.0)
	mov	r0,_bpx
	movx	a,@r0
	mov	r4,a
	inc	r0
	movx	a,@r0
	mov	r5,a
	inc	r0
	movx	a,@r0
	mov	r6,a
	inc	r0
	movx	a,@r0
	mov	r7,a
	mov	dptr,#___fslt_PARM_2
	clr	a
	movx	@dptr,a
	inc	dptr
	movx	@dptr,a
	inc	dptr
	movx	@dptr,a
	inc	dptr
	movx	@dptr,a
	push	ar0
	mov	a,_spx
	mov	r0,a
	add	a,#0x04
	mov	_spx,a
	mov	a,r7
	movx	@r0,a
	inc	r0
	mov	a,r6
	movx	@r0,a
	inc	r0
	mov	a,r5
	movx	@r0,a
	inc	r0
	mov	a,r4
	movx	@r0,a
	pop	ar0
	mov	dpl,r4
	mov	dph,r5
	mov	b,r6
	mov	a,r7
	lcall	___fslt
	mov	r0,_spx
	dec	r0
	movx	a,@r0
	mov	r4,a
	dec	r0
	movx	a,@r0
	mov	r5,a
	dec	r0
	movx	a,@r0
	mov	r6,a
	dec	r0
	movx	a,@r0
	mov	r7,a
	mov	_spx,r0
	jc	00102$
;	expf.c:338: { y=x;  sign=0; }
	mov	a,_bpx
	add	a,#0x0a
	mov	r0,a
	mov	a,r4
	movx	@r0,a
	inc	r0
	mov	a,r5
	movx	@r0,a
	inc	r0
	mov	a,r6
	movx	@r0,a
	inc	r0
	mov	a,r7
	movx	@r0,a
	mov	a,_bpx
	add	a,#0x0e
	mov	r0,a
	clr	a
	movx	@r0,a
	sjmp	00103$
00102$:
;	expf.c:340: { y=-x; sign=1; }
	mov	a,r7
	cpl	acc.7
	mov	r7,a
	mov	a,_bpx
	add	a,#0x0a
	mov	r0,a
	mov	a,r4
	movx	@r0,a
	inc	r0
	mov	a,r5
	movx	@r0,a
	inc	r0
	mov	a,r6
	movx	@r0,a
	inc	r0
	mov	a,r7
	movx	@r0,a
	mov	a,_bpx
	add	a,#0x0e
	mov	r0,a
	mov	a,#0x01
	movx	@r0,a
00103$:
;	expf.c:342: if(y<EXPEPS) return 1.0;
	mov	a,_bpx
	add	a,#0x0a
	mov	r0,a
	movx	a,@r0
	mov	r4,a
	inc	r0
	movx	a,@r0
	mov	r5,a
	inc	r0
	movx	a,@r0
	mov	r6,a
	inc	r0
	movx	a,@r0
	mov	r7,a
	mov	dptr,#___fslt_PARM_2
	mov	a,#0x95
	movx	@dptr,a
	mov	a,#0xbf
	inc	dptr
	movx	@dptr,a
	mov	a,#0xd6
	inc	dptr
	movx	@dptr,a
	mov	a,#0x33
	inc	dptr
	movx	@dptr,a
	push	ar0
	mov	a,_spx
	mov	r0,a
	add	a,#0x04
	mov	_spx,a
	mov	a,r7
	movx	@r0,a
	inc	r0
	mov	a,r6
	movx	@r0,a
	inc	r0
	mov	a,r5
	movx	@r0,a
	inc	r0
	mov	a,r4
	movx	@r0,a
	pop	ar0
	mov	dpl,r4
	mov	dph,r5
	mov	b,r6
	mov	a,r7
	lcall	___fslt
	mov	a,dpl
	push	acc
	mov	r0,_spx
	dec	r0
	movx	a,@r0
	mov	r4,a
	dec	r0
	movx	a,@r0
	mov	r5,a
	dec	r0
	movx	a,@r0
	mov	r6,a
	dec	r0
	movx	a,@r0
	mov	r7,a
	mov	_spx,r0
	pop	acc
	jz	00105$
	mov	dptr,#0x0000
	mov	b,#0x80
	mov	a,#0x3f
	ljmp	00118$
00105$:
;	expf.c:344: if(y>BIGX)
	mov	dptr,#___fsgt_PARM_2
	mov	a,#0x18
	movx	@dptr,a
	mov	a,#0x72
	inc	dptr
	movx	@dptr,a
	mov	a,#0xb1
	inc	dptr
	movx	@dptr,a
	mov	a,#0x42
	inc	dptr
	movx	@dptr,a
	push	ar0
	mov	a,_spx
	mov	r0,a
	add	a,#0x04
	mov	_spx,a
	mov	a,r7
	movx	@r0,a
	inc	r0
	mov	a,r6
	movx	@r0,a
	inc	r0
	mov	a,r5
	movx	@r0,a
	inc	r0
	mov	a,r4
	movx	@r0,a
	pop	ar0
	mov	dpl,r4
	mov	dph,r5
	mov	b,r6
	mov	a,r7
	lcall	___fsgt
	mov	a,dpl
	push	acc
	mov	r0,_spx
	dec	r0
	movx	a,@r0
	mov	r4,a
	dec	r0
	movx	a,@r0
	mov	r5,a
	dec	r0
	movx	a,@r0
	mov	r6,a
	dec	r0
	movx	a,@r0
	mov	r7,a
	mov	_spx,r0
	pop	acc
	jz	00110$
;	expf.c:346: if(sign)
	mov	a,_bpx
	add	a,#0x0e
	mov	r0,a
	movx	a,@r0
	jz	00107$
;	expf.c:348: errno=ERANGE;
	mov	dptr,#_errno
	mov	a,#0x22
	movx	@dptr,a
	clr	a
	inc	dptr
	movx	@dptr,a
;	expf.c:350: ;
	mov	dptr,#0xffff
	mov	a,#0x7f
	mov	b,a
	ljmp	00118$
00107$:
;	expf.c:354: return 0.0;
	mov	dptr,#(0x00&0x00ff)
	clr	a
	mov	b,a
	ljmp	00118$
00110$:
;	expf.c:358: z=y*K1;
	mov	dptr,#___fsmul_PARM_2
	mov	a,r4
	movx	@dptr,a
	mov	a,r5
	inc	dptr
	movx	@dptr,a
	mov	a,r6
	inc	dptr
	movx	@dptr,a
	mov	a,r7
	inc	dptr
	movx	@dptr,a
;	expf.c:359: n=z;
	mov	dptr,#0xaa3b
	mov	b,#0xb8
	mov	a,#0x3f
	lcall	___fsmul
	xch	a,r0
	mov	a,_bp
	add	a,#0x0b
	xch	a,r0
	mov	@r0,dpl
	inc	r0
	mov	@r0,dph
	inc	r0
	mov	@r0,b
	inc	r0
	mov	@r0,a
	mov	a,_bp
	add	a,#0x0b
	mov	r0,a
	mov	dpl,@r0
	inc	r0
	mov	dph,@r0
	inc	r0
	mov	b,@r0
	inc	r0
	mov	a,@r0
	lcall	___fs2sint
	mov	r2,dpl
	mov	r3,dph
	mov	a,_bpx
	add	a,#0x04
	mov	r0,a
	mov	a,r2
	movx	@r0,a
	inc	r0
	mov	a,r3
	movx	@r0,a
;	expf.c:361: if(n<0) --n;
	mov	a,r3
	jnb	acc.7,00112$
	dec	r2
	cjne	r2,#0xff,00146$
	dec	r3
00146$:
	mov	a,_bpx
	add	a,#0x04
	mov	r0,a
	mov	a,r2
	movx	@r0,a
	inc	r0
	mov	a,r3
	movx	@r0,a
00112$:
;	expf.c:362: if(z-n>=0.5) ++n;
	mov	a,_bpx
	add	a,#0x04
	mov	r0,a
	mov	a,_bp
	add	a,#0x05
	mov	r1,a
	movx	a,@r0
	mov	@r1,a
	inc	r0
	movx	a,@r0
	inc	r1
	mov	@r1,a
	mov	a,_bp
	add	a,#0x05
	mov	r0,a
	mov	dpl,@r0
	inc	r0
	mov	dph,@r0
	lcall	___sint2fs
	mov	r2,dpl
	mov	r3,dph
	mov	r6,b
	mov	r7,a
	mov	dptr,#___fssub_PARM_2
	mov	a,r2
	movx	@dptr,a
	mov	a,r3
	inc	dptr
	movx	@dptr,a
	mov	a,r6
	inc	dptr
	movx	@dptr,a
	mov	a,r7
	inc	dptr
	movx	@dptr,a
	mov	a,_bp
	add	a,#0x0b
	mov	r0,a
	mov	dpl,@r0
	inc	r0
	mov	dph,@r0
	inc	r0
	mov	b,@r0
	inc	r0
	mov	a,@r0
	lcall	___fssub
	mov	r4,dpl
	mov	r5,dph
	mov	r6,b
	mov	r7,a
	mov	dptr,#___fslt_PARM_2
	clr	a
	movx	@dptr,a
	inc	dptr
	movx	@dptr,a
	inc	dptr
	movx	@dptr,a
	mov	a,#0x3f
	inc	dptr
	movx	@dptr,a
	mov	dpl,r4
	mov	dph,r5
	mov	b,r6
	mov	a,r7
	lcall	___fslt
	jc	00114$
	mov	a,_bp
	add	a,#0x05
	mov	r0,a
	mov	a,_bpx
	add	a,#0x04
	mov	r1,a
	mov	a,#0x01
	add	a,@r0
	movx	@r1,a
	clr	a
	inc	r0
	addc	a,@r0
	inc	r1
	movx	@r1,a
00114$:
;	expf.c:363: xn=n;
	mov	a,_bpx
	add	a,#0x04
	mov	r0,a
	mov	a,_bp
	add	a,#0x0b
	mov	r1,a
	movx	a,@r0
	mov	@r1,a
	inc	r0
	movx	a,@r0
	inc	r1
	mov	@r1,a
	mov	a,_bp
	add	a,#0x0b
	mov	r0,a
	mov	dpl,@r0
	inc	r0
	mov	dph,@r0
	lcall	___sint2fs
	mov	r0,_bp
	inc	r0
	mov	@r0,dpl
	inc	r0
	mov	@r0,dph
	inc	r0
	mov	@r0,b
	inc	r0
	mov	@r0,a
;	expf.c:364: g=((y-xn*C1))-xn*C2;
	mov	r0,_bp
	inc	r0
	mov	dptr,#___fsmul_PARM_2
	mov	a,@r0
	movx	@dptr,a
	inc	r0
	mov	a,@r0
	inc	dptr
	movx	@dptr,a
	inc	r0
	mov	a,@r0
	inc	dptr
	movx	@dptr,a
	inc	r0
	mov	a,@r0
	inc	dptr
	movx	@dptr,a
	mov	dptr,#0x8000
	mov	b,#0x31
	mov	a,#0x3f
	lcall	___fsmul
	xch	a,r0
	mov	a,_bp
	add	a,#0x07
	xch	a,r0
	mov	@r0,dpl
	inc	r0
	mov	@r0,dph
	inc	r0
	mov	@r0,b
	inc	r0
	mov	@r0,a
	mov	a,_bpx
	add	a,#0x0a
	mov	r0,a
	movx	a,@r0
	mov	r2,a
	inc	r0
	movx	a,@r0
	mov	r3,a
	inc	r0
	movx	a,@r0
	mov	r6,a
	inc	r0
	movx	a,@r0
	mov	r7,a
	mov	a,_bp
	add	a,#0x07
	mov	r0,a
	mov	dptr,#___fssub_PARM_2
	mov	a,@r0
	movx	@dptr,a
	inc	r0
	mov	a,@r0
	inc	dptr
	movx	@dptr,a
	inc	r0
	mov	a,@r0
	inc	dptr
	movx	@dptr,a
	inc	r0
	mov	a,@r0
	inc	dptr
	movx	@dptr,a
	mov	dpl,r2
	mov	dph,r3
	mov	b,r6
	mov	a,r7
	lcall	___fssub
	xch	a,r0
	mov	a,_bp
	add	a,#0x07
	xch	a,r0
	mov	@r0,dpl
	inc	r0
	mov	@r0,dph
	inc	r0
	mov	@r0,b
	inc	r0
	mov	@r0,a
	mov	r0,_bp
	inc	r0
	mov	dptr,#___fsmul_PARM_2
	mov	a,@r0
	movx	@dptr,a
	inc	r0
	mov	a,@r0
	inc	dptr
	movx	@dptr,a
	inc	r0
	mov	a,@r0
	inc	dptr
	movx	@dptr,a
	inc	r0
	mov	a,@r0
	inc	dptr
	movx	@dptr,a
	mov	dptr,#0x8083
	mov	b,#0x5e
	mov	a,#0xb9
	lcall	___fsmul
	mov	r2,dpl
	mov	r3,dph
	mov	r6,b
	mov	r7,a
	mov	dptr,#___fssub_PARM_2
	mov	a,r2
	movx	@dptr,a
	mov	a,r3
	inc	dptr
	movx	@dptr,a
	mov	a,r6
	inc	dptr
	movx	@dptr,a
	mov	a,r7
	inc	dptr
	movx	@dptr,a
;	expf.c:365: z=g*g;
	mov	a,_bp
	add	a,#0x07
	mov	r0,a
	mov	dpl,@r0
	inc	r0
	mov	dph,@r0
	inc	r0
	mov	b,@r0
	inc	r0
	mov	a,@r0
	lcall	___fssub
	xch	a,r0
	mov	a,_bp
	add	a,#0x07
	xch	a,r0
	mov	@r0,dpl
	inc	r0
	mov	@r0,dph
	inc	r0
	mov	@r0,b
	inc	r0
	mov	@r0,a
	mov	a,_bp
	add	a,#0x07
	mov	r0,a
	mov	dptr,#___fsmul_PARM_2
	mov	a,@r0
	movx	@dptr,a
	inc	r0
	mov	a,@r0
	inc	dptr
	movx	@dptr,a
	inc	r0
	mov	a,@r0
	inc	dptr
	movx	@dptr,a
	inc	r0
	mov	a,@r0
	inc	dptr
	movx	@dptr,a
;	expf.c:366: r=P(z)*g;
	mov	a,_bp
	add	a,#0x07
	mov	r0,a
	mov	dpl,@r0
	inc	r0
	mov	dph,@r0
	inc	r0
	mov	b,@r0
	inc	r0
	mov	a,@r0
	lcall	___fsmul
	mov	r0,_bp
	inc	r0
	mov	@r0,dpl
	inc	r0
	mov	@r0,dph
	inc	r0
	mov	@r0,b
	inc	r0
	mov	@r0,a
	mov	r0,_bp
	inc	r0
	mov	dptr,#___fsmul_PARM_2
	mov	a,@r0
	movx	@dptr,a
	inc	r0
	mov	a,@r0
	inc	dptr
	movx	@dptr,a
	inc	r0
	mov	a,@r0
	inc	dptr
	movx	@dptr,a
	inc	r0
	mov	a,@r0
	inc	dptr
	movx	@dptr,a
	mov	dptr,#0x5308
	mov	b,#0x88
	mov	a,#0x3b
	lcall	___fsmul
	mov	r4,dpl
	mov	r5,dph
	mov	r6,b
	mov	r7,a
	mov	dptr,#___fsadd_PARM_2
	clr	a
	movx	@dptr,a
	inc	dptr
	movx	@dptr,a
	mov	a,#0x80
	inc	dptr
	movx	@dptr,a
	mov	a,#0x3e
	inc	dptr
	movx	@dptr,a
	mov	dpl,r4
	mov	dph,r5
	mov	b,r6
	mov	a,r7
	lcall	___fsadd
	mov	r4,dpl
	mov	r5,dph
	mov	r6,b
	mov	r7,a
	mov	a,_bp
	add	a,#0x07
	mov	r0,a
	mov	dptr,#___fsmul_PARM_2
	mov	a,@r0
	movx	@dptr,a
	inc	r0
	mov	a,@r0
	inc	dptr
	movx	@dptr,a
	inc	r0
	mov	a,@r0
	inc	dptr
	movx	@dptr,a
	inc	r0
	mov	a,@r0
	inc	dptr
	movx	@dptr,a
;	expf.c:367: r=0.5+(r/(Q(z)-r));
	mov	dpl,r4
	mov	dph,r5
	mov	b,r6
	mov	a,r7
	lcall	___fsmul
	xch	a,r0
	mov	a,_bp
	add	a,#0x07
	xch	a,r0
	mov	@r0,dpl
	inc	r0
	mov	@r0,dph
	inc	r0
	mov	@r0,b
	inc	r0
	mov	@r0,a
	mov	r0,_bp
	inc	r0
	mov	dptr,#___fsmul_PARM_2
	mov	a,@r0
	movx	@dptr,a
	inc	r0
	mov	a,@r0
	inc	dptr
	movx	@dptr,a
	inc	r0
	mov	a,@r0
	inc	dptr
	movx	@dptr,a
	inc	r0
	mov	a,@r0
	inc	dptr
	movx	@dptr,a
	mov	dptr,#0xbf5b
	mov	b,#0x4c
	mov	a,#0x3d
	lcall	___fsmul
	mov	r2,dpl
	mov	r3,dph
	mov	r6,b
	mov	r7,a
	mov	dptr,#___fsadd_PARM_2
	clr	a
	movx	@dptr,a
	inc	dptr
	movx	@dptr,a
	inc	dptr
	movx	@dptr,a
	mov	a,#0x3f
	inc	dptr
	movx	@dptr,a
	mov	dpl,r2
	mov	dph,r3
	mov	b,r6
	mov	a,r7
	lcall	___fsadd
	mov	r4,dpl
	mov	r5,dph
	mov	r6,b
	mov	r7,a
	mov	a,_bp
	add	a,#0x07
	mov	r0,a
	mov	dptr,#___fssub_PARM_2
	mov	a,@r0
	movx	@dptr,a
	inc	r0
	mov	a,@r0
	inc	dptr
	movx	@dptr,a
	inc	r0
	mov	a,@r0
	inc	dptr
	movx	@dptr,a
	inc	r0
	mov	a,@r0
	inc	dptr
	movx	@dptr,a
	mov	dpl,r4
	mov	dph,r5
	mov	b,r6
	mov	a,r7
	lcall	___fssub
	mov	r4,dpl
	mov	r5,dph
	mov	r6,b
	mov	r7,a
	mov	dptr,#___fsdiv_PARM_2
	mov	a,r4
	movx	@dptr,a
	mov	a,r5
	inc	dptr
	movx	@dptr,a
	mov	a,r6
	inc	dptr
	movx	@dptr,a
	mov	a,r7
	inc	dptr
	movx	@dptr,a
	mov	a,_bp
	add	a,#0x07
	mov	r0,a
	mov	dpl,@r0
	inc	r0
	mov	dph,@r0
	inc	r0
	mov	b,@r0
	inc	r0
	mov	a,@r0
	lcall	___fsdiv
	mov	r4,dpl
	mov	r5,dph
	mov	r6,b
	mov	r7,a
	mov	dptr,#___fsadd_PARM_2
	clr	a
	movx	@dptr,a
	inc	dptr
	movx	@dptr,a
	inc	dptr
	movx	@dptr,a
	mov	a,#0x3f
	inc	dptr
	movx	@dptr,a
	mov	dpl,r4
	mov	dph,r5
	mov	b,r6
	mov	a,r7
	lcall	___fsadd
	mov	r4,dpl
	mov	r5,dph
	mov	r6,b
	mov	r7,a
	mov	a,_bpx
	add	a,#0x06
	mov	r0,a
	mov	a,r4
	movx	@r0,a
	inc	r0
	mov	a,r5
	movx	@r0,a
	inc	r0
	mov	a,r6
	movx	@r0,a
	inc	r0
	mov	a,r7
	movx	@r0,a
;	expf.c:369: n++;
	mov	a,_bp
	add	a,#0x0b
	mov	r0,a
	mov	a,_bpx
	add	a,#0x04
	mov	r1,a
	mov	a,#0x01
	add	a,@r0
	movx	@r1,a
	clr	a
	inc	r0
	addc	a,@r0
	inc	r1
	movx	@r1,a
;	expf.c:370: z=ldexpf(r, n);
	mov	a,_bpx
	add	a,#0x06
	mov	r0,a
	movx	a,@r0
	mov	r4,a
	inc	r0
	movx	a,@r0
	mov	r5,a
	inc	r0
	movx	a,@r0
	mov	r6,a
	inc	r0
	movx	a,@r0
	mov	r7,a
	mov	a,_bpx
	add	a,#0x04
	mov	r0,a
	movx	a,@r0
	mov	r2,a
	inc	r0
	movx	a,@r0
	mov	r3,a
	mov	dptr,#_ldexpf_PARM_2
	mov	a,r2
	movx	@dptr,a
	mov	a,r3
	inc	dptr
	movx	@dptr,a
	mov	dpl,r4
	mov	dph,r5
	mov	b,r6
	mov	a,r7
	lcall	_ldexpf
	mov	r4,dpl
	mov	r5,dph
	mov	r6,b
	mov	r7,a
;	expf.c:371: if(sign)
	mov	a,_bpx
	add	a,#0x0e
	mov	r0,a
	movx	a,@r0
	jz	00116$
;	expf.c:372: return 1.0/z;
	mov	dptr,#___fsdiv_PARM_2
	mov	a,r4
	movx	@dptr,a
	mov	a,r5
	inc	dptr
	movx	@dptr,a
	mov	a,r6
	inc	dptr
	movx	@dptr,a
	mov	a,r7
	inc	dptr
	movx	@dptr,a
	mov	dptr,#0x0000
	mov	b,#0x80
	mov	a,#0x3f
	lcall	___fsdiv
	xch	a,r0
	mov	a,_bp
	add	a,#0x07
	xch	a,r0
	mov	@r0,dpl
	inc	r0
	mov	@r0,dph
	inc	r0
	mov	@r0,b
	inc	r0
	mov	@r0,a
	mov	a,_bp
	add	a,#0x07
	mov	r0,a
	mov	dpl,@r0
	inc	r0
	mov	dph,@r0
	inc	r0
	mov	b,@r0
	inc	r0
	mov	a,@r0
	sjmp	00118$
00116$:
;	expf.c:374: return z;
	mov	dpl,r4
	mov	dph,r5
	mov	b,r6
	mov	a,r7
00118$:
	mov	sp,_bp
	pop	_bp
	xch	a,_bpx
	mov	r0,a
	dec	r0
	movx	a,@r0
	xch	a,_bpx
	mov	_spx,r0
	ret
	.area CSEG    (CODE)
	.area CONST   (CODE)
	.area XINIT   (CODE)
	.area CABS    (ABS,CODE)
