;--------------------------------------------------------
; File Created by SDCC : free open source ANSI-C Compiler
; Version 3.6.3 #9771 (MSVC)
;--------------------------------------------------------
	.module logf
	.optsdcc -mmcs51 --model-large --xstack
	
;--------------------------------------------------------
; Public variables in this module
;--------------------------------------------------------
	.globl _frexpf
	.globl _logf
;--------------------------------------------------------
; special function registers
;--------------------------------------------------------
	.area RSEG    (ABS,DATA)
	.org 0x0000
;--------------------------------------------------------
; special function bits
;--------------------------------------------------------
	.area RSEG    (ABS,DATA)
	.org 0x0000
;--------------------------------------------------------
; overlayable register banks
;--------------------------------------------------------
	.area REG_BANK_0	(REL,OVR,DATA)
	.ds 8
;--------------------------------------------------------
; internal ram data
;--------------------------------------------------------
	.area DSEG    (DATA)
;--------------------------------------------------------
; overlayable items in internal ram 
;--------------------------------------------------------
;--------------------------------------------------------
; indirectly addressable internal ram data
;--------------------------------------------------------
	.area ISEG    (DATA)
;--------------------------------------------------------
; absolute internal ram data
;--------------------------------------------------------
	.area IABS    (ABS,DATA)
	.area IABS    (ABS,DATA)
;--------------------------------------------------------
; bit data
;--------------------------------------------------------
	.area BSEG    (BIT)
;--------------------------------------------------------
; paged external ram data
;--------------------------------------------------------
	.area PSEG    (PAG,XDATA)
;--------------------------------------------------------
; external ram data
;--------------------------------------------------------
	.area XSEG    (XDATA)
;--------------------------------------------------------
; absolute external ram data
;--------------------------------------------------------
	.area XABS    (ABS,XDATA)
;--------------------------------------------------------
; external initialized ram data
;--------------------------------------------------------
	.area XISEG   (XDATA)
	.area HOME    (CODE)
	.area GSINIT0 (CODE)
	.area GSINIT1 (CODE)
	.area GSINIT2 (CODE)
	.area GSINIT3 (CODE)
	.area GSINIT4 (CODE)
	.area GSINIT5 (CODE)
	.area GSINIT  (CODE)
	.area GSFINAL (CODE)
	.area CSEG    (CODE)
;--------------------------------------------------------
; global & static initialisations
;--------------------------------------------------------
	.area HOME    (CODE)
	.area GSINIT  (CODE)
	.area GSFINAL (CODE)
	.area GSINIT  (CODE)
;--------------------------------------------------------
; Home
;--------------------------------------------------------
	.area HOME    (CODE)
	.area HOME    (CODE)
;--------------------------------------------------------
; code
;--------------------------------------------------------
	.area CSEG    (CODE)
;------------------------------------------------------------
;Allocation info for local variables in function 'logf'
;------------------------------------------------------------
;x                         Allocated to stack - _bpx +0
;Rz                        Allocated to stack - _bpx +4
;f                         Allocated to stack - _bpx +8
;z                         Allocated to stack - _bpx +12
;w                         Allocated to stack - _bpx +16
;znum                      Allocated to stack - _bpx +4
;zden                      Allocated to stack - _bpx +8
;xn                        Allocated to stack - _bpx +28
;n                         Allocated to stack - _bpx +12
;sloc0                     Allocated to stack - _bp +1
;sloc1                     Allocated to stack - _bp +5
;sloc2                     Allocated to stack - _bp +1
;------------------------------------------------------------
;	logf.c:216: float logf(float x) _FLOAT_FUNC_REENTRANT
;	-----------------------------------------
;	 function logf
;	-----------------------------------------
_logf:
	ar7 = 0x07
	ar6 = 0x06
	ar5 = 0x05
	ar4 = 0x04
	ar3 = 0x03
	ar2 = 0x02
	ar1 = 0x01
	ar0 = 0x00
	mov	r0,_spx
	inc	_spx
	xch	a,_bpx
	movx	@r0,a
	inc	r0
	mov	a,r0
	xch	a,_bpx
	push	_bp
	mov	_bp,sp
	xch	a,r0
	mov	a,sp
	add	a,#0x08
	mov	sp,a
	mov	a,_spx
	add	a,#0x0e
	mov	_spx,a
	xch	a,r0
	mov	r7,dpl
	mov	r6,dph
	mov	r5,b
	mov	r4,a
	mov	r0,_bpx
	mov	a,r7
	movx	@r0,a
	inc	r0
	mov	a,r6
	movx	@r0,a
	inc	r0
	mov	a,r5
	movx	@r0,a
	inc	r0
	mov	a,r4
	movx	@r0,a
;	logf.c:226: if (x<=0.0)
	mov	r0,_bpx
	movx	a,@r0
	mov	r4,a
	inc	r0
	movx	a,@r0
	mov	r5,a
	inc	r0
	movx	a,@r0
	mov	r6,a
	inc	r0
	movx	a,@r0
	mov	r7,a
	mov	dptr,#___fsgt_PARM_2
	clr	a
	movx	@dptr,a
	inc	dptr
	movx	@dptr,a
	inc	dptr
	movx	@dptr,a
	inc	dptr
	movx	@dptr,a
	push	ar0
	mov	a,_spx
	mov	r0,a
	add	a,#0x04
	mov	_spx,a
	mov	a,r7
	movx	@r0,a
	inc	r0
	mov	a,r6
	movx	@r0,a
	inc	r0
	mov	a,r5
	movx	@r0,a
	inc	r0
	mov	a,r4
	movx	@r0,a
	pop	ar0
	mov	dpl,r4
	mov	dph,r5
	mov	b,r6
	mov	a,r7
	lcall	___fsgt
	mov	r0,_spx
	dec	r0
	movx	a,@r0
	mov	r4,a
	dec	r0
	movx	a,@r0
	mov	r5,a
	dec	r0
	movx	a,@r0
	mov	r6,a
	dec	r0
	movx	a,@r0
	mov	r7,a
	mov	_spx,r0
	jc	00102$
;	logf.c:228: errno=EDOM;
	mov	dptr,#_errno
	mov	a,#0x21
	movx	@dptr,a
	clr	a
	inc	dptr
	movx	@dptr,a
;	logf.c:229: return 0.0;
	mov	dptr,#(0x00&0x00ff)
	clr	a
	mov	b,a
	ljmp	00106$
00102$:
;	logf.c:231: f=frexpf(x, &n);
	mov	a,_bpx
	add	a,#0x0c
	mov	dptr,#_frexpf_PARM_2
	movx	@dptr,a
	clr	a
	inc	dptr
	movx	@dptr,a
	mov	a,#0x60
	inc	dptr
	movx	@dptr,a
	mov	dpl,r4
	mov	dph,r5
	mov	b,r6
	mov	a,r7
	lcall	_frexpf
	xch	a,r0
	mov	a,_bp
	add	a,#0x05
	xch	a,r0
	mov	@r0,dpl
	inc	r0
	mov	@r0,dph
	inc	r0
	mov	@r0,b
	inc	r0
	mov	@r0,a
;	logf.c:232: znum=f-0.5;
	mov	dptr,#___fssub_PARM_2
	clr	a
	movx	@dptr,a
	inc	dptr
	movx	@dptr,a
	inc	dptr
	movx	@dptr,a
	mov	a,#0x3f
	inc	dptr
	movx	@dptr,a
	mov	a,_bp
	add	a,#0x05
	mov	r0,a
	mov	dpl,@r0
	inc	r0
	mov	dph,@r0
	inc	r0
	mov	b,@r0
	inc	r0
	mov	a,@r0
	lcall	___fssub
	mov	r5,dpl
	mov	r4,dph
	mov	r3,b
	mov	r2,a
	mov	a,_bpx
	add	a,#0x04
	mov	r0,a
	mov	a,r5
	movx	@r0,a
	inc	r0
	mov	a,r4
	movx	@r0,a
	inc	r0
	mov	a,r3
	movx	@r0,a
	inc	r0
	mov	a,r2
	movx	@r0,a
;	logf.c:233: if (f>C0)
	mov	dptr,#___fsgt_PARM_2
	mov	a,#0xf3
	movx	@dptr,a
	mov	a,#0x04
	inc	dptr
	movx	@dptr,a
	mov	a,#0x35
	inc	dptr
	movx	@dptr,a
	mov	a,#0x3f
	inc	dptr
	movx	@dptr,a
	push	ar0
	mov	a,_spx
	mov	r0,a
	add	a,#0x04
	mov	_spx,a
	mov	a,r5
	movx	@r0,a
	inc	r0
	mov	a,r4
	movx	@r0,a
	inc	r0
	mov	a,r3
	movx	@r0,a
	inc	r0
	mov	a,r2
	movx	@r0,a
	pop	ar0
	mov	a,_bp
	add	a,#0x05
	mov	r0,a
	mov	dpl,@r0
	inc	r0
	mov	dph,@r0
	inc	r0
	mov	b,@r0
	inc	r0
	mov	a,@r0
	lcall	___fsgt
	mov	a,dpl
	push	acc
	mov	r0,_spx
	dec	r0
	movx	a,@r0
	mov	r2,a
	dec	r0
	movx	a,@r0
	mov	r3,a
	dec	r0
	movx	a,@r0
	mov	r4,a
	dec	r0
	movx	a,@r0
	mov	r5,a
	mov	_spx,r0
	pop	acc
	jnz	00115$
	ljmp	00104$
00115$:
;	logf.c:235: znum-=0.5;
	mov	dptr,#___fssub_PARM_2
	clr	a
	movx	@dptr,a
	inc	dptr
	movx	@dptr,a
	inc	dptr
	movx	@dptr,a
	mov	a,#0x3f
	inc	dptr
	movx	@dptr,a
	mov	dpl,r5
	mov	dph,r4
	mov	b,r3
	mov	a,r2
	lcall	___fssub
	mov	r2,dpl
	mov	r3,dph
	mov	r6,b
	mov	r7,a
	mov	a,_bpx
	add	a,#0x04
	mov	r0,a
	mov	a,r2
	movx	@r0,a
	inc	r0
	mov	a,r3
	movx	@r0,a
	inc	r0
	mov	a,r6
	movx	@r0,a
	inc	r0
	mov	a,r7
	movx	@r0,a
;	logf.c:236: zden=(f*0.5)+0.5;
	mov	a,_bp
	add	a,#0x05
	mov	r0,a
	mov	dptr,#___fsmul_PARM_2
	mov	a,@r0
	movx	@dptr,a
	inc	r0
	mov	a,@r0
	inc	dptr
	movx	@dptr,a
	inc	r0
	mov	a,@r0
	inc	dptr
	movx	@dptr,a
	inc	r0
	mov	a,@r0
	inc	dptr
	movx	@dptr,a
	mov	dptr,#(0x00&0x00ff)
	clr	a
	mov	b,a
	mov	a,#0x3f
	lcall	___fsmul
	mov	r4,dpl
	mov	r5,dph
	mov	r6,b
	mov	r7,a
	mov	dptr,#___fsadd_PARM_2
	clr	a
	movx	@dptr,a
	inc	dptr
	movx	@dptr,a
	inc	dptr
	movx	@dptr,a
	mov	a,#0x3f
	inc	dptr
	movx	@dptr,a
	mov	dpl,r4
	mov	dph,r5
	mov	b,r6
	mov	a,r7
	lcall	___fsadd
	mov	r4,dpl
	mov	r5,dph
	mov	r6,b
	mov	r7,a
	mov	a,_bpx
	add	a,#0x08
	mov	r0,a
	mov	a,r4
	movx	@r0,a
	inc	r0
	mov	a,r5
	movx	@r0,a
	inc	r0
	mov	a,r6
	movx	@r0,a
	inc	r0
	mov	a,r7
	movx	@r0,a
	sjmp	00105$
00104$:
;	logf.c:240: n--;
	mov	a,_bpx
	add	a,#0x0c
	mov	r0,a
	movx	a,@r0
	add	a,#0xff
	mov	r6,a
	inc	r0
	movx	a,@r0
	addc	a,#0xff
	mov	r7,a
	mov	a,_bpx
	add	a,#0x0c
	mov	r0,a
	mov	a,r6
	movx	@r0,a
	inc	r0
	mov	a,r7
	movx	@r0,a
;	logf.c:241: zden=znum*0.5+0.5;
	mov	dptr,#___fsmul_PARM_2
	mov	a,r5
	movx	@dptr,a
	mov	a,r4
	inc	dptr
	movx	@dptr,a
	mov	a,r3
	inc	dptr
	movx	@dptr,a
	mov	a,r2
	inc	dptr
	movx	@dptr,a
	mov	dptr,#(0x00&0x00ff)
	clr	a
	mov	b,a
	mov	a,#0x3f
	lcall	___fsmul
	mov	r4,dpl
	mov	r5,dph
	mov	r6,b
	mov	r7,a
	mov	dptr,#___fsadd_PARM_2
	clr	a
	movx	@dptr,a
	inc	dptr
	movx	@dptr,a
	inc	dptr
	movx	@dptr,a
	mov	a,#0x3f
	inc	dptr
	movx	@dptr,a
	mov	dpl,r4
	mov	dph,r5
	mov	b,r6
	mov	a,r7
	lcall	___fsadd
	mov	r4,dpl
	mov	r5,dph
	mov	r6,b
	mov	r7,a
	mov	a,_bpx
	add	a,#0x08
	mov	r0,a
	mov	a,r4
	movx	@r0,a
	inc	r0
	mov	a,r5
	movx	@r0,a
	inc	r0
	mov	a,r6
	movx	@r0,a
	inc	r0
	mov	a,r7
	movx	@r0,a
00105$:
;	logf.c:243: z=znum/zden;
	mov	a,_bpx
	add	a,#0x08
	mov	r0,a
	mov	a,_bp
	add	a,#0x05
	mov	r1,a
	movx	a,@r0
	mov	@r1,a
	inc	r0
	movx	a,@r0
	inc	r1
	mov	@r1,a
	inc	r0
	movx	a,@r0
	inc	r1
	mov	@r1,a
	inc	r0
	movx	a,@r0
	inc	r1
	mov	@r1,a
	mov	a,_bpx
	add	a,#0x04
	mov	r0,a
	movx	a,@r0
	mov	r2,a
	inc	r0
	movx	a,@r0
	mov	r3,a
	inc	r0
	movx	a,@r0
	mov	r6,a
	inc	r0
	movx	a,@r0
	mov	r7,a
	mov	a,_bp
	add	a,#0x05
	mov	r0,a
	mov	dptr,#___fsdiv_PARM_2
	mov	a,@r0
	movx	@dptr,a
	inc	r0
	mov	a,@r0
	inc	dptr
	movx	@dptr,a
	inc	r0
	mov	a,@r0
	inc	dptr
	movx	@dptr,a
	inc	r0
	mov	a,@r0
	inc	dptr
	movx	@dptr,a
;	logf.c:244: w=z*z;
	mov	dpl,r2
	mov	dph,r3
	mov	b,r6
	mov	a,r7
	lcall	___fsdiv
	xch	a,r0
	mov	a,_bp
	add	a,#0x05
	xch	a,r0
	mov	@r0,dpl
	inc	r0
	mov	@r0,dph
	inc	r0
	mov	@r0,b
	inc	r0
	mov	@r0,a
	mov	a,_bp
	add	a,#0x05
	mov	r0,a
	mov	dptr,#___fsmul_PARM_2
	mov	a,@r0
	movx	@dptr,a
	inc	r0
	mov	a,@r0
	inc	dptr
	movx	@dptr,a
	inc	r0
	mov	a,@r0
	inc	dptr
	movx	@dptr,a
	inc	r0
	mov	a,@r0
	inc	dptr
	movx	@dptr,a
;	logf.c:246: Rz=z+z*(w*A(w)/B(w));
	mov	a,_bp
	add	a,#0x05
	mov	r0,a
	mov	dpl,@r0
	inc	r0
	mov	dph,@r0
	inc	r0
	mov	b,@r0
	inc	r0
	mov	a,@r0
	lcall	___fsmul
	mov	r7,dpl
	mov	r6,dph
	mov	r5,b
	mov	r4,a
	mov	dptr,#___fsmul_PARM_2
	mov	a,r7
	movx	@dptr,a
	mov	a,r6
	inc	dptr
	movx	@dptr,a
	mov	a,r5
	inc	dptr
	movx	@dptr,a
	mov	a,r4
	inc	dptr
	movx	@dptr,a
	push	ar0
	mov	a,_spx
	mov	r0,a
	add	a,#0x04
	mov	_spx,a
	mov	a,r7
	movx	@r0,a
	inc	r0
	mov	a,r6
	movx	@r0,a
	inc	r0
	mov	a,r5
	movx	@r0,a
	inc	r0
	mov	a,r4
	movx	@r0,a
	pop	ar0
	mov	dptr,#0x7e3d
	mov	b,#0x0d
	mov	a,#0xbf
	lcall	___fsmul
	mov	r0,_bp
	inc	r0
	mov	@r0,dpl
	inc	r0
	mov	@r0,dph
	inc	r0
	mov	@r0,b
	inc	r0
	mov	@r0,a
	mov	r0,_spx
	dec	r0
	movx	a,@r0
	mov	r4,a
	dec	r0
	movx	a,@r0
	mov	r5,a
	dec	r0
	movx	a,@r0
	mov	r6,a
	dec	r0
	movx	a,@r0
	mov	r7,a
	mov	_spx,r0
	mov	dptr,#___fsadd_PARM_2
	mov	a,#0x3a
	movx	@dptr,a
	mov	a,#0x3f
	inc	dptr
	movx	@dptr,a
	mov	a,#0xd4
	inc	dptr
	movx	@dptr,a
	mov	a,#0xc0
	inc	dptr
	movx	@dptr,a
	mov	dpl,r7
	mov	dph,r6
	mov	b,r5
	mov	a,r4
	lcall	___fsadd
	mov	r2,dpl
	mov	r3,dph
	mov	r6,b
	mov	r7,a
	mov	dptr,#___fsdiv_PARM_2
	mov	a,r2
	movx	@dptr,a
	mov	a,r3
	inc	dptr
	movx	@dptr,a
	mov	a,r6
	inc	dptr
	movx	@dptr,a
	mov	a,r7
	inc	dptr
	movx	@dptr,a
	mov	r0,_bp
	inc	r0
	mov	dpl,@r0
	inc	r0
	mov	dph,@r0
	inc	r0
	mov	b,@r0
	inc	r0
	mov	a,@r0
	lcall	___fsdiv
	mov	r4,dpl
	mov	r5,dph
	mov	r6,b
	mov	r7,a
	mov	dptr,#___fsmul_PARM_2
	mov	a,r4
	movx	@dptr,a
	mov	a,r5
	inc	dptr
	movx	@dptr,a
	mov	a,r6
	inc	dptr
	movx	@dptr,a
	mov	a,r7
	inc	dptr
	movx	@dptr,a
	mov	a,_bp
	add	a,#0x05
	mov	r0,a
	mov	dpl,@r0
	inc	r0
	mov	dph,@r0
	inc	r0
	mov	b,@r0
	inc	r0
	mov	a,@r0
	lcall	___fsmul
	mov	r4,dpl
	mov	r5,dph
	mov	r6,b
	mov	r7,a
	mov	dptr,#___fsadd_PARM_2
	mov	a,r4
	movx	@dptr,a
	mov	a,r5
	inc	dptr
	movx	@dptr,a
	mov	a,r6
	inc	dptr
	movx	@dptr,a
	mov	a,r7
	inc	dptr
	movx	@dptr,a
;	logf.c:247: xn=n;
	mov	a,_bp
	add	a,#0x05
	mov	r0,a
	mov	dpl,@r0
	inc	r0
	mov	dph,@r0
	inc	r0
	mov	b,@r0
	inc	r0
	mov	a,@r0
	lcall	___fsadd
	mov	r0,_bp
	inc	r0
	mov	@r0,dpl
	inc	r0
	mov	@r0,dph
	inc	r0
	mov	@r0,b
	inc	r0
	mov	@r0,a
	mov	a,_bpx
	add	a,#0x0c
	mov	r0,a
	movx	a,@r0
	mov	r2,a
	inc	r0
	movx	a,@r0
	mov	r3,a
	mov	dpl,r2
	mov	dph,r3
	lcall	___sint2fs
	xch	a,r0
	mov	a,_bp
	add	a,#0x05
	xch	a,r0
	mov	@r0,dpl
	inc	r0
	mov	@r0,dph
	inc	r0
	mov	@r0,b
	inc	r0
	mov	@r0,a
;	logf.c:248: return ((xn*C2+Rz)+xn*C1);
	mov	a,_bp
	add	a,#0x05
	mov	r0,a
	mov	dptr,#___fsmul_PARM_2
	mov	a,@r0
	movx	@dptr,a
	inc	r0
	mov	a,@r0
	inc	dptr
	movx	@dptr,a
	inc	r0
	mov	a,@r0
	inc	dptr
	movx	@dptr,a
	inc	r0
	mov	a,@r0
	inc	dptr
	movx	@dptr,a
	mov	dptr,#0x8083
	mov	b,#0x5e
	mov	a,#0xb9
	lcall	___fsmul
	mov	r4,dpl
	mov	r5,dph
	mov	r6,b
	mov	r7,a
	mov	r0,_bp
	inc	r0
	mov	dptr,#___fsadd_PARM_2
	mov	a,@r0
	movx	@dptr,a
	inc	r0
	mov	a,@r0
	inc	dptr
	movx	@dptr,a
	inc	r0
	mov	a,@r0
	inc	dptr
	movx	@dptr,a
	inc	r0
	mov	a,@r0
	inc	dptr
	movx	@dptr,a
	mov	dpl,r4
	mov	dph,r5
	mov	b,r6
	mov	a,r7
	lcall	___fsadd
	mov	r0,_bp
	inc	r0
	mov	@r0,dpl
	inc	r0
	mov	@r0,dph
	inc	r0
	mov	@r0,b
	inc	r0
	mov	@r0,a
	mov	a,_bp
	add	a,#0x05
	mov	r0,a
	mov	dptr,#___fsmul_PARM_2
	mov	a,@r0
	movx	@dptr,a
	inc	r0
	mov	a,@r0
	inc	dptr
	movx	@dptr,a
	inc	r0
	mov	a,@r0
	inc	dptr
	movx	@dptr,a
	inc	r0
	mov	a,@r0
	inc	dptr
	movx	@dptr,a
	mov	dptr,#0x8000
	mov	b,#0x31
	mov	a,#0x3f
	lcall	___fsmul
	mov	r2,dpl
	mov	r3,dph
	mov	r6,b
	mov	r7,a
	mov	dptr,#___fsadd_PARM_2
	mov	a,r2
	movx	@dptr,a
	mov	a,r3
	inc	dptr
	movx	@dptr,a
	mov	a,r6
	inc	dptr
	movx	@dptr,a
	mov	a,r7
	inc	dptr
	movx	@dptr,a
	mov	r0,_bp
	inc	r0
	mov	dpl,@r0
	inc	r0
	mov	dph,@r0
	inc	r0
	mov	b,@r0
	inc	r0
	mov	a,@r0
	lcall	___fsadd
	mov	r4,dpl
	mov	r5,dph
	mov	r6,b
	mov	r7,a
00106$:
	mov	sp,_bp
	pop	_bp
	xch	a,_bpx
	mov	r0,a
	dec	r0
	movx	a,@r0
	xch	a,_bpx
	mov	_spx,r0
	ret
	.area CSEG    (CODE)
	.area CONST   (CODE)
	.area XINIT   (CODE)
	.area CABS    (ABS,CODE)
