;--------------------------------------------------------
; File Created by SDCC : free open source ANSI-C Compiler
; Version 3.6.3 #9771 (MSVC)
;--------------------------------------------------------
	.module sqrtf
	.optsdcc -mmcs51 --model-large --xstack
	
;--------------------------------------------------------
; Public variables in this module
;--------------------------------------------------------
	.globl _ldexpf
	.globl _frexpf
	.globl _sqrtf
;--------------------------------------------------------
; special function registers
;--------------------------------------------------------
	.area RSEG    (ABS,DATA)
	.org 0x0000
;--------------------------------------------------------
; special function bits
;--------------------------------------------------------
	.area RSEG    (ABS,DATA)
	.org 0x0000
;--------------------------------------------------------
; overlayable register banks
;--------------------------------------------------------
	.area REG_BANK_0	(REL,OVR,DATA)
	.ds 8
;--------------------------------------------------------
; internal ram data
;--------------------------------------------------------
	.area DSEG    (DATA)
;--------------------------------------------------------
; overlayable items in internal ram 
;--------------------------------------------------------
;--------------------------------------------------------
; indirectly addressable internal ram data
;--------------------------------------------------------
	.area ISEG    (DATA)
;--------------------------------------------------------
; absolute internal ram data
;--------------------------------------------------------
	.area IABS    (ABS,DATA)
	.area IABS    (ABS,DATA)
;--------------------------------------------------------
; bit data
;--------------------------------------------------------
	.area BSEG    (BIT)
;--------------------------------------------------------
; paged external ram data
;--------------------------------------------------------
	.area PSEG    (PAG,XDATA)
;--------------------------------------------------------
; external ram data
;--------------------------------------------------------
	.area XSEG    (XDATA)
;--------------------------------------------------------
; absolute external ram data
;--------------------------------------------------------
	.area XABS    (ABS,XDATA)
;--------------------------------------------------------
; external initialized ram data
;--------------------------------------------------------
	.area XISEG   (XDATA)
	.area HOME    (CODE)
	.area GSINIT0 (CODE)
	.area GSINIT1 (CODE)
	.area GSINIT2 (CODE)
	.area GSINIT3 (CODE)
	.area GSINIT4 (CODE)
	.area GSINIT5 (CODE)
	.area GSINIT  (CODE)
	.area GSFINAL (CODE)
	.area CSEG    (CODE)
;--------------------------------------------------------
; global & static initialisations
;--------------------------------------------------------
	.area HOME    (CODE)
	.area GSINIT  (CODE)
	.area GSFINAL (CODE)
	.area GSINIT  (CODE)
;--------------------------------------------------------
; Home
;--------------------------------------------------------
	.area HOME    (CODE)
	.area HOME    (CODE)
;--------------------------------------------------------
; code
;--------------------------------------------------------
	.area CSEG    (CODE)
;------------------------------------------------------------
;Allocation info for local variables in function 'sqrtf'
;------------------------------------------------------------
;x                         Allocated to stack - _bpx +0
;f                         Allocated to stack - _bpx +4
;y                         Allocated to stack - _bpx +4
;n                         Allocated to stack - _bpx +8
;sloc0                     Allocated to stack - _bp +9
;sloc1                     Allocated to stack - _bp +1
;sloc2                     Allocated to stack - _bp +5
;------------------------------------------------------------
;	sqrtf.c:37: float sqrtf(float x) _FLOAT_FUNC_REENTRANT
;	-----------------------------------------
;	 function sqrtf
;	-----------------------------------------
_sqrtf:
	ar7 = 0x07
	ar6 = 0x06
	ar5 = 0x05
	ar4 = 0x04
	ar3 = 0x03
	ar2 = 0x02
	ar1 = 0x01
	ar0 = 0x00
	mov	r0,_spx
	inc	_spx
	xch	a,_bpx
	movx	@r0,a
	inc	r0
	mov	a,r0
	xch	a,_bpx
	push	_bp
	mov	_bp,sp
	xch	a,r0
	mov	a,sp
	add	a,#0x0c
	mov	sp,a
	mov	a,_spx
	add	a,#0x0a
	mov	_spx,a
	xch	a,r0
	mov	r7,dpl
	mov	r6,dph
	mov	r5,b
	mov	r4,a
	mov	r0,_bpx
	mov	a,r7
	movx	@r0,a
	inc	r0
	mov	a,r6
	movx	@r0,a
	inc	r0
	mov	a,r5
	movx	@r0,a
	inc	r0
	mov	a,r4
	movx	@r0,a
;	sqrtf.c:42: if (x==0.0) return x;
	mov	r0,_bpx
	movx	a,@r0
	mov	r4,a
	inc	r0
	movx	a,@r0
	mov	r5,a
	inc	r0
	movx	a,@r0
	mov	r6,a
	inc	r0
	movx	a,@r0
	mov	r7,a
	mov	b,r4
	mov	a,r5
	orl	b,a
	mov	a,r6
	orl	b,a
	mov	a,r7
	anl	a,#0x7F
	orl	a,b
	jnz	00107$
	mov	dpl,r4
	mov	dph,r5
	mov	b,r6
	mov	a,r7
	ljmp	00111$
00107$:
;	sqrtf.c:43: else if (x==1.0) return 1.0;
	mov	dptr,#___fseq_PARM_2
	clr	a
	movx	@dptr,a
	inc	dptr
	movx	@dptr,a
	mov	a,#0x80
	inc	dptr
	movx	@dptr,a
	mov	a,#0x3f
	inc	dptr
	movx	@dptr,a
	push	ar0
	mov	a,_spx
	mov	r0,a
	add	a,#0x04
	mov	_spx,a
	mov	a,r7
	movx	@r0,a
	inc	r0
	mov	a,r6
	movx	@r0,a
	inc	r0
	mov	a,r5
	movx	@r0,a
	inc	r0
	mov	a,r4
	movx	@r0,a
	pop	ar0
	mov	dpl,r4
	mov	dph,r5
	mov	b,r6
	mov	a,r7
	lcall	___fseq
	mov	a,dpl
	push	acc
	mov	r0,_spx
	dec	r0
	movx	a,@r0
	mov	r4,a
	dec	r0
	movx	a,@r0
	mov	r5,a
	dec	r0
	movx	a,@r0
	mov	r6,a
	dec	r0
	movx	a,@r0
	mov	r7,a
	mov	_spx,r0
	pop	acc
	jz	00104$
	mov	dptr,#0x0000
	mov	b,#0x80
	mov	a,#0x3f
	ljmp	00111$
00104$:
;	sqrtf.c:44: else if (x<0.0)
	mov	dptr,#___fslt_PARM_2
	clr	a
	movx	@dptr,a
	inc	dptr
	movx	@dptr,a
	inc	dptr
	movx	@dptr,a
	inc	dptr
	movx	@dptr,a
	push	ar0
	mov	a,_spx
	mov	r0,a
	add	a,#0x04
	mov	_spx,a
	mov	a,r7
	movx	@r0,a
	inc	r0
	mov	a,r6
	movx	@r0,a
	inc	r0
	mov	a,r5
	movx	@r0,a
	inc	r0
	mov	a,r4
	movx	@r0,a
	pop	ar0
	mov	dpl,r4
	mov	dph,r5
	mov	b,r6
	mov	a,r7
	lcall	___fslt
	mov	a,dpl
	push	acc
	mov	r0,_spx
	dec	r0
	movx	a,@r0
	mov	r4,a
	dec	r0
	movx	a,@r0
	mov	r5,a
	dec	r0
	movx	a,@r0
	mov	r6,a
	dec	r0
	movx	a,@r0
	mov	r7,a
	mov	_spx,r0
	pop	acc
	jz	00108$
;	sqrtf.c:46: errno=EDOM;
	mov	dptr,#_errno
	mov	a,#0x21
	movx	@dptr,a
	clr	a
	inc	dptr
	movx	@dptr,a
;	sqrtf.c:47: return 0.0;
	mov	dptr,#(0x00&0x00ff)
	clr	a
	mov	b,a
	ljmp	00111$
00108$:
;	sqrtf.c:49: f=frexpf(x, &n);
	mov	a,_bpx
	add	a,#0x08
	mov	dptr,#_frexpf_PARM_2
	movx	@dptr,a
	clr	a
	inc	dptr
	movx	@dptr,a
	mov	a,#0x60
	inc	dptr
	movx	@dptr,a
	mov	dpl,r4
	mov	dph,r5
	mov	b,r6
	mov	a,r7
	lcall	_frexpf
	xch	a,r0
	mov	a,_bp
	add	a,#0x09
	xch	a,r0
	mov	@r0,dpl
	inc	r0
	mov	@r0,dph
	inc	r0
	mov	@r0,b
	inc	r0
	mov	@r0,a
;	sqrtf.c:50: y=0.41731+0.59016*f; /*Educated guess*/
	mov	a,_bp
	add	a,#0x09
	mov	r0,a
	mov	dptr,#___fsmul_PARM_2
	mov	a,@r0
	movx	@dptr,a
	inc	r0
	mov	a,@r0
	inc	dptr
	movx	@dptr,a
	inc	r0
	mov	a,@r0
	inc	dptr
	movx	@dptr,a
	inc	r0
	mov	a,@r0
	inc	dptr
	movx	@dptr,a
	mov	dptr,#0x14ba
	mov	b,#0x17
	mov	a,#0x3f
	lcall	___fsmul
	mov	r2,dpl
	mov	r3,dph
	mov	r6,b
	mov	r7,a
	mov	dptr,#___fsadd_PARM_2
	mov	a,#0xa8
	movx	@dptr,a
	inc	a
	inc	dptr
	movx	@dptr,a
	mov	a,#0xd5
	inc	dptr
	movx	@dptr,a
	mov	a,#0x3e
	inc	dptr
	movx	@dptr,a
;	sqrtf.c:52: y+=f/y;
	mov	dpl,r2
	mov	dph,r3
	mov	b,r6
	mov	a,r7
	lcall	___fsadd
	mov	r0,_bp
	inc	r0
	mov	@r0,dpl
	inc	r0
	mov	@r0,dph
	inc	r0
	mov	@r0,b
	inc	r0
	mov	@r0,a
	mov	r0,_bp
	inc	r0
	mov	dptr,#___fsdiv_PARM_2
	mov	a,@r0
	movx	@dptr,a
	inc	r0
	mov	a,@r0
	inc	dptr
	movx	@dptr,a
	inc	r0
	mov	a,@r0
	inc	dptr
	movx	@dptr,a
	inc	r0
	mov	a,@r0
	inc	dptr
	movx	@dptr,a
	mov	a,_bp
	add	a,#0x09
	mov	r0,a
	mov	dpl,@r0
	inc	r0
	mov	dph,@r0
	inc	r0
	mov	b,@r0
	inc	r0
	mov	a,@r0
	lcall	___fsdiv
	mov	r2,dpl
	mov	r3,dph
	mov	r6,b
	mov	r7,a
	mov	dptr,#___fsadd_PARM_2
	mov	a,r2
	movx	@dptr,a
	mov	a,r3
	inc	dptr
	movx	@dptr,a
	mov	a,r6
	inc	dptr
	movx	@dptr,a
	mov	a,r7
	inc	dptr
	movx	@dptr,a
;	sqrtf.c:53: y=ldexpf(y, -2) + f/y; /*Faster version of 0.25 * y + f/y*/
	mov	r0,_bp
	inc	r0
	mov	dpl,@r0
	inc	r0
	mov	dph,@r0
	inc	r0
	mov	b,@r0
	inc	r0
	mov	a,@r0
	lcall	___fsadd
	mov	r7,dpl
	mov	r6,dph
	mov	r5,b
	mov	r4,a
	mov	dptr,#_ldexpf_PARM_2
	mov	a,#0xfe
	movx	@dptr,a
	inc	a
	inc	dptr
	movx	@dptr,a
	push	ar0
	mov	a,_spx
	mov	r0,a
	add	a,#0x04
	mov	_spx,a
	mov	a,r7
	movx	@r0,a
	inc	r0
	mov	a,r6
	movx	@r0,a
	inc	r0
	mov	a,r5
	movx	@r0,a
	inc	r0
	mov	a,r4
	movx	@r0,a
	pop	ar0
	mov	dpl,r7
	mov	dph,r6
	mov	b,r5
	mov	a,r4
	lcall	_ldexpf
	xch	a,r0
	mov	a,_bp
	add	a,#0x05
	xch	a,r0
	mov	@r0,dpl
	inc	r0
	mov	@r0,dph
	inc	r0
	mov	@r0,b
	inc	r0
	mov	@r0,a
	mov	r0,_spx
	dec	r0
	movx	a,@r0
	mov	r4,a
	dec	r0
	movx	a,@r0
	mov	r5,a
	dec	r0
	movx	a,@r0
	mov	r6,a
	dec	r0
	movx	a,@r0
	mov	r7,a
	mov	_spx,r0
	mov	dptr,#___fsdiv_PARM_2
	mov	a,r7
	movx	@dptr,a
	mov	a,r6
	inc	dptr
	movx	@dptr,a
	mov	a,r5
	inc	dptr
	movx	@dptr,a
	mov	a,r4
	inc	dptr
	movx	@dptr,a
	mov	a,_bp
	add	a,#0x09
	mov	r0,a
	mov	dpl,@r0
	inc	r0
	mov	dph,@r0
	inc	r0
	mov	b,@r0
	inc	r0
	mov	a,@r0
	lcall	___fsdiv
	mov	r4,dpl
	mov	r5,dph
	mov	r6,b
	mov	r7,a
	mov	dptr,#___fsadd_PARM_2
	mov	a,r4
	movx	@dptr,a
	mov	a,r5
	inc	dptr
	movx	@dptr,a
	mov	a,r6
	inc	dptr
	movx	@dptr,a
	mov	a,r7
	inc	dptr
	movx	@dptr,a
	mov	a,_bp
	add	a,#0x05
	mov	r0,a
	mov	dpl,@r0
	inc	r0
	mov	dph,@r0
	inc	r0
	mov	b,@r0
	inc	r0
	mov	a,@r0
	lcall	___fsadd
	mov	r4,dpl
	mov	r5,dph
	mov	r6,b
	mov	r7,a
	mov	a,_bpx
	add	a,#0x04
	mov	r0,a
	mov	a,r4
	movx	@r0,a
	inc	r0
	mov	a,r5
	movx	@r0,a
	inc	r0
	mov	a,r6
	movx	@r0,a
	inc	r0
	mov	a,r7
	movx	@r0,a
;	sqrtf.c:55: if (n&1)
	mov	a,_bpx
	add	a,#0x08
	mov	r0,a
	movx	a,@r0
	mov	r2,a
	inc	r0
	movx	a,@r0
	mov	r3,a
	mov	a,r2
	jnb	acc.0,00110$
;	sqrtf.c:57: y*=0.7071067812;
	mov	dptr,#___fsmul_PARM_2
	mov	a,r4
	movx	@dptr,a
	mov	a,r5
	inc	dptr
	movx	@dptr,a
	mov	a,r6
	inc	dptr
	movx	@dptr,a
	mov	a,r7
	inc	dptr
	movx	@dptr,a
	push	ar0
	mov	r0,_spx
	inc	_spx
	inc	_spx
	mov	a,r3
	movx	@r0,a
	inc	r0
	mov	a,r2
	movx	@r0,a
	pop	ar0
	mov	dptr,#0x04f3
	mov	b,#0x35
	mov	a,#0x3f
	lcall	___fsmul
	mov	r4,dpl
	mov	r5,dph
	mov	r6,b
	mov	r7,a
	mov	r0,_spx
	dec	r0
	movx	a,@r0
	mov	r2,a
	dec	r0
	movx	a,@r0
	mov	r3,a
	mov	_spx,r0
	mov	a,_bpx
	add	a,#0x04
	mov	r0,a
	mov	a,r4
	movx	@r0,a
	inc	r0
	mov	a,r5
	movx	@r0,a
	inc	r0
	mov	a,r6
	movx	@r0,a
	inc	r0
	mov	a,r7
	movx	@r0,a
;	sqrtf.c:58: ++n;
	mov	a,_bpx
	add	a,#0x08
	mov	r0,a
	mov	a,#0x01
	add	a,r2
	movx	@r0,a
	clr	a
	addc	a,r3
	inc	r0
	movx	@r0,a
00110$:
;	sqrtf.c:60: return ldexpf(y, n/2);
	mov	a,_bpx
	add	a,#0x04
	mov	r0,a
	movx	a,@r0
	mov	r4,a
	inc	r0
	movx	a,@r0
	mov	r5,a
	inc	r0
	movx	a,@r0
	mov	r6,a
	inc	r0
	movx	a,@r0
	mov	r7,a
	mov	a,_bpx
	add	a,#0x08
	mov	r0,a
	movx	a,@r0
	mov	r2,a
	inc	r0
	movx	a,@r0
	mov	r3,a
	mov	dptr,#__divsint_PARM_2
	mov	a,#0x02
	movx	@dptr,a
	clr	a
	inc	dptr
	movx	@dptr,a
	push	ar0
	mov	a,_spx
	mov	r0,a
	add	a,#0x04
	mov	_spx,a
	mov	a,r7
	movx	@r0,a
	inc	r0
	mov	a,r6
	movx	@r0,a
	inc	r0
	mov	a,r5
	movx	@r0,a
	inc	r0
	mov	a,r4
	movx	@r0,a
	pop	ar0
	mov	dpl,r2
	mov	dph,r3
	lcall	__divsint
	mov	r2,dpl
	mov	r3,dph
	mov	r0,_spx
	dec	r0
	movx	a,@r0
	mov	r4,a
	dec	r0
	movx	a,@r0
	mov	r5,a
	dec	r0
	movx	a,@r0
	mov	r6,a
	dec	r0
	movx	a,@r0
	mov	r7,a
	mov	_spx,r0
	mov	dptr,#_ldexpf_PARM_2
	mov	a,r2
	movx	@dptr,a
	mov	a,r3
	inc	dptr
	movx	@dptr,a
	mov	dpl,r4
	mov	dph,r5
	mov	b,r6
	mov	a,r7
	lcall	_ldexpf
	mov	r4,dpl
	mov	r5,dph
	mov	r6,b
	mov	r7,a
00111$:
	mov	sp,_bp
	pop	_bp
	xch	a,_bpx
	mov	r0,a
	dec	r0
	movx	a,@r0
	xch	a,_bpx
	mov	_spx,r0
	ret
	.area CSEG    (CODE)
	.area CONST   (CODE)
	.area XINIT   (CODE)
	.area CABS    (ABS,CODE)
