;--------------------------------------------------------
; File Created by SDCC : free open source ANSI-C Compiler
; Version 3.6.3 #9771 (MSVC)
;--------------------------------------------------------
	.module tancotf
	.optsdcc -mmcs51 --model-large --xstack
	
;--------------------------------------------------------
; Public variables in this module
;--------------------------------------------------------
	.globl _tancotf
	.globl _fabsf
	.globl _tancotf_PARM_2
;--------------------------------------------------------
; special function registers
;--------------------------------------------------------
	.area RSEG    (ABS,DATA)
	.org 0x0000
;--------------------------------------------------------
; special function bits
;--------------------------------------------------------
	.area RSEG    (ABS,DATA)
	.org 0x0000
;--------------------------------------------------------
; overlayable register banks
;--------------------------------------------------------
	.area REG_BANK_0	(REL,OVR,DATA)
	.ds 8
;--------------------------------------------------------
; internal ram data
;--------------------------------------------------------
	.area DSEG    (DATA)
_tancotf_sloc0_1_0:
	.ds 2
_tancotf_sloc1_1_0:
	.ds 4
_tancotf_sloc2_1_0:
	.ds 4
;--------------------------------------------------------
; overlayable items in internal ram 
;--------------------------------------------------------
;--------------------------------------------------------
; indirectly addressable internal ram data
;--------------------------------------------------------
	.area ISEG    (DATA)
;--------------------------------------------------------
; absolute internal ram data
;--------------------------------------------------------
	.area IABS    (ABS,DATA)
	.area IABS    (ABS,DATA)
;--------------------------------------------------------
; bit data
;--------------------------------------------------------
	.area BSEG    (BIT)
;--------------------------------------------------------
; paged external ram data
;--------------------------------------------------------
	.area PSEG    (PAG,XDATA)
;--------------------------------------------------------
; external ram data
;--------------------------------------------------------
	.area XSEG    (XDATA)
_tancotf_PARM_2:
	.ds 1
_tancotf_x_1_25:
	.ds 4
_tancotf_xnum_1_26:
	.ds 4
_tancotf_xden_1_26:
	.ds 4
;--------------------------------------------------------
; absolute external ram data
;--------------------------------------------------------
	.area XABS    (ABS,XDATA)
;--------------------------------------------------------
; external initialized ram data
;--------------------------------------------------------
	.area XISEG   (XDATA)
	.area HOME    (CODE)
	.area GSINIT0 (CODE)
	.area GSINIT1 (CODE)
	.area GSINIT2 (CODE)
	.area GSINIT3 (CODE)
	.area GSINIT4 (CODE)
	.area GSINIT5 (CODE)
	.area GSINIT  (CODE)
	.area GSFINAL (CODE)
	.area CSEG    (CODE)
;--------------------------------------------------------
; global & static initialisations
;--------------------------------------------------------
	.area HOME    (CODE)
	.area GSINIT  (CODE)
	.area GSFINAL (CODE)
	.area GSINIT  (CODE)
;--------------------------------------------------------
; Home
;--------------------------------------------------------
	.area HOME    (CODE)
	.area HOME    (CODE)
;--------------------------------------------------------
; code
;--------------------------------------------------------
	.area CSEG    (CODE)
;------------------------------------------------------------
;Allocation info for local variables in function 'tancotf'
;------------------------------------------------------------
;sloc0                     Allocated with name '_tancotf_sloc0_1_0'
;sloc1                     Allocated with name '_tancotf_sloc1_1_0'
;sloc2                     Allocated with name '_tancotf_sloc2_1_0'
;iscotan                   Allocated with name '_tancotf_PARM_2'
;x                         Allocated with name '_tancotf_x_1_25'
;f                         Allocated with name '_tancotf_f_1_26'
;g                         Allocated with name '_tancotf_g_1_26'
;xn                        Allocated with name '_tancotf_xn_1_26'
;xnum                      Allocated with name '_tancotf_xnum_1_26'
;xden                      Allocated with name '_tancotf_xden_1_26'
;n                         Allocated with name '_tancotf_n_1_26'
;------------------------------------------------------------
;	tancotf.c:53: float tancotf(float x, bool iscotan)
;	-----------------------------------------
;	 function tancotf
;	-----------------------------------------
_tancotf:
	ar7 = 0x07
	ar6 = 0x06
	ar5 = 0x05
	ar4 = 0x04
	ar3 = 0x03
	ar2 = 0x02
	ar1 = 0x01
	ar0 = 0x00
	mov	r7,dpl
	mov	r6,dph
	mov	r5,b
	mov	r4,a
	mov	dptr,#_tancotf_x_1_25
	mov	a,r7
	movx	@dptr,a
	mov	a,r6
	inc	dptr
	movx	@dptr,a
	mov	a,r5
	inc	dptr
	movx	@dptr,a
	mov	a,r4
	inc	dptr
	movx	@dptr,a
;	tancotf.c:58: if (fabsf(x) > YMAX)
	mov	dptr,#_tancotf_x_1_25
	movx	a,@dptr
	mov	r4,a
	inc	dptr
	movx	a,@dptr
	mov	r5,a
	inc	dptr
	movx	a,@dptr
	mov	r6,a
	inc	dptr
	movx	a,@dptr
	mov	r7,a
	push	ar0
	mov	a,_spx
	mov	r0,a
	add	a,#0x04
	mov	_spx,a
	mov	a,r7
	movx	@r0,a
	inc	r0
	mov	a,r6
	movx	@r0,a
	inc	r0
	mov	a,r5
	movx	@r0,a
	inc	r0
	mov	a,r4
	movx	@r0,a
	pop	ar0
	mov	dpl,r4
	mov	dph,r5
	mov	b,r6
	mov	a,r7
	lcall	_fabsf
	mov	r0,dpl
	mov	r1,dph
	mov	r2,b
	mov	r3,a
	push	ar0
	mov	r0,_spx
	dec	r0
	movx	a,@r0
	mov	r4,a
	dec	r0
	movx	a,@r0
	mov	r5,a
	dec	r0
	movx	a,@r0
	mov	r6,a
	dec	r0
	movx	a,@r0
	mov	r7,a
	mov	_spx,r0
	mov	dptr,#___fsgt_PARM_2
	clr	a
	movx	@dptr,a
	mov	a,#0x08
	inc	dptr
	movx	@dptr,a
	mov	a,#0xc9
	inc	dptr
	movx	@dptr,a
	mov	a,#0x45
	inc	dptr
	movx	@dptr,a
	mov	a,_spx
	mov	r0,a
	add	a,#0x04
	mov	_spx,a
	mov	a,r7
	movx	@r0,a
	inc	r0
	mov	a,r6
	movx	@r0,a
	inc	r0
	mov	a,r5
	movx	@r0,a
	inc	r0
	mov	a,r4
	movx	@r0,a
	pop	ar0
	mov	dpl,r0
	mov	dph,r1
	mov	b,r2
	mov	a,r3
	lcall	___fsgt
	mov	a,dpl
	push	acc
	mov	r0,_spx
	dec	r0
	movx	a,@r0
	mov	r4,a
	dec	r0
	movx	a,@r0
	mov	r5,a
	dec	r0
	movx	a,@r0
	mov	r6,a
	dec	r0
	movx	a,@r0
	mov	r7,a
	mov	_spx,r0
	pop	acc
	jz	00102$
;	tancotf.c:60: errno = ERANGE;
	mov	dptr,#_errno
	mov	a,#0x22
	movx	@dptr,a
	clr	a
	inc	dptr
	movx	@dptr,a
;	tancotf.c:61: return 0.0;
	mov	dptr,#(0x00&0x00ff)
	clr	a
	mov	b,a
	ret
00102$:
;	tancotf.c:65: n=(x*TWO_O_PI+(x>0.0?0.5:-0.5)); /*works for +-x*/
	mov	dptr,#___fsmul_PARM_2
	mov	a,r4
	movx	@dptr,a
	mov	a,r5
	inc	dptr
	movx	@dptr,a
	mov	a,r6
	inc	dptr
	movx	@dptr,a
	mov	a,r7
	inc	dptr
	movx	@dptr,a
	push	ar0
	mov	a,_spx
	mov	r0,a
	add	a,#0x04
	mov	_spx,a
	mov	a,r7
	movx	@r0,a
	inc	r0
	mov	a,r6
	movx	@r0,a
	inc	r0
	mov	a,r5
	movx	@r0,a
	inc	r0
	mov	a,r4
	movx	@r0,a
	pop	ar0
	mov	dptr,#0xf983
	mov	b,#0x22
	mov	a,#0x3f
	lcall	___fsmul
	mov	r0,dpl
	mov	r1,dph
	mov	r2,b
	mov	r3,a
	push	ar0
	mov	r0,_spx
	dec	r0
	movx	a,@r0
	mov	r4,a
	dec	r0
	movx	a,@r0
	mov	r5,a
	dec	r0
	movx	a,@r0
	mov	r6,a
	dec	r0
	movx	a,@r0
	mov	r7,a
	mov	_spx,r0
	mov	dptr,#___fsgt_PARM_2
	clr	a
	movx	@dptr,a
	inc	dptr
	movx	@dptr,a
	inc	dptr
	movx	@dptr,a
	inc	dptr
	movx	@dptr,a
	mov	a,_spx
	mov	r0,a
	add	a,#0x04
	mov	_spx,a
	mov	a,r3
	movx	@r0,a
	inc	r0
	mov	a,r2
	movx	@r0,a
	inc	r0
	mov	a,r1
	movx	@r0,a
	inc	r0
	pop	acc
	push	acc
	movx	@r0,a
	pop	ar0
	mov	dpl,r4
	mov	dph,r5
	mov	b,r6
	mov	a,r7
	lcall	___fsgt
	mov	a,dpl
	push	acc
	mov	r0,_spx
	dec	r0
	movx	a,@r0
	push	acc
	dec	r0
	movx	a,@r0
	mov	r1,a
	dec	r0
	movx	a,@r0
	mov	r2,a
	dec	r0
	movx	a,@r0
	mov	r3,a
	mov	_spx,r0
	pop	ar0
	pop	acc
	jz	00117$
	mov	r4,#0x00
	mov	r5,#0x00
	mov	r6,#0x00
	mov	r7,#0x3f
	sjmp	00118$
00117$:
	mov	r4,#0x00
	mov	r5,#0x00
	mov	r6,#0x00
	mov	r7,#0xbf
00118$:
	mov	dptr,#___fsadd_PARM_2
	mov	a,r4
	movx	@dptr,a
	mov	a,r5
	inc	dptr
	movx	@dptr,a
	mov	a,r6
	inc	dptr
	movx	@dptr,a
	mov	a,r7
	inc	dptr
	movx	@dptr,a
	mov	dpl,r0
	mov	dph,r1
	mov	b,r2
	mov	a,r3
	lcall	___fsadd
	lcall	___fs2sint
;	tancotf.c:66: xn=n;
	mov	_tancotf_sloc0_1_0,dpl
	mov  (_tancotf_sloc0_1_0 + 1),dph
	lcall	___sint2fs
	mov	r2,dpl
	mov	r3,dph
	mov	r4,b
	mov	r5,a
;	tancotf.c:68: xnum=(int)x;
	mov	dptr,#_tancotf_x_1_25
	movx	a,@dptr
	mov	_tancotf_sloc1_1_0,a
	inc	dptr
	movx	a,@dptr
	mov	(_tancotf_sloc1_1_0 + 1),a
	inc	dptr
	movx	a,@dptr
	mov	(_tancotf_sloc1_1_0 + 2),a
	inc	dptr
	movx	a,@dptr
	mov	(_tancotf_sloc1_1_0 + 3),a
	push	ar0
	mov	a,_spx
	mov	r0,a
	add	a,#0x04
	mov	_spx,a
	mov	a,r5
	movx	@r0,a
	inc	r0
	mov	a,r4
	movx	@r0,a
	inc	r0
	mov	a,r3
	movx	@r0,a
	inc	r0
	mov	a,r2
	movx	@r0,a
	pop	ar0
	mov	dpl,_tancotf_sloc1_1_0
	mov	dph,(_tancotf_sloc1_1_0 + 1)
	mov	b,(_tancotf_sloc1_1_0 + 2)
	mov	a,(_tancotf_sloc1_1_0 + 3)
	lcall	___fs2sint
	mov	r6,dpl
	mov	r7,dph
	mov	r0,_spx
	dec	r0
	movx	a,@r0
	mov	r2,a
	dec	r0
	movx	a,@r0
	mov	r3,a
	dec	r0
	movx	a,@r0
	mov	r4,a
	dec	r0
	movx	a,@r0
	mov	r5,a
	mov	_spx,r0
	push	ar0
	mov	a,_spx
	mov	r0,a
	add	a,#0x04
	mov	_spx,a
	mov	a,r5
	movx	@r0,a
	inc	r0
	mov	a,r4
	movx	@r0,a
	inc	r0
	mov	a,r3
	movx	@r0,a
	inc	r0
	mov	a,r2
	movx	@r0,a
	pop	ar0
	mov	dpl,r6
	mov	dph,r7
	lcall	___sint2fs
	mov	_tancotf_sloc2_1_0,dpl
	mov	(_tancotf_sloc2_1_0 + 1),dph
	mov	(_tancotf_sloc2_1_0 + 2),b
	mov	(_tancotf_sloc2_1_0 + 3),a
	mov	r0,_spx
	dec	r0
	movx	a,@r0
	mov	r2,a
	dec	r0
	movx	a,@r0
	mov	r3,a
	dec	r0
	movx	a,@r0
	mov	r4,a
	dec	r0
	movx	a,@r0
	mov	r5,a
	mov	_spx,r0
;	tancotf.c:69: xden=x-xnum;
	mov	dptr,#___fssub_PARM_2
	mov	a,_tancotf_sloc2_1_0
	movx	@dptr,a
	mov	a,(_tancotf_sloc2_1_0 + 1)
	inc	dptr
	movx	@dptr,a
	mov	a,(_tancotf_sloc2_1_0 + 2)
	inc	dptr
	movx	@dptr,a
	mov	a,(_tancotf_sloc2_1_0 + 3)
	inc	dptr
	movx	@dptr,a
;	tancotf.c:70: f=((xnum-xn*C1)+xden)-xn*C2;
	push	ar0
	mov	a,_spx
	mov	r0,a
	add	a,#0x04
	mov	_spx,a
	mov	a,r5
	movx	@r0,a
	inc	r0
	mov	a,r4
	movx	@r0,a
	inc	r0
	mov	a,r3
	movx	@r0,a
	inc	r0
	mov	a,r2
	movx	@r0,a
	pop	ar0
	mov	dpl,_tancotf_sloc1_1_0
	mov	dph,(_tancotf_sloc1_1_0 + 1)
	mov	b,(_tancotf_sloc1_1_0 + 2)
	mov	a,(_tancotf_sloc1_1_0 + 3)
	lcall	___fssub
	mov	_tancotf_sloc1_1_0,dpl
	mov	(_tancotf_sloc1_1_0 + 1),dph
	mov	(_tancotf_sloc1_1_0 + 2),b
	mov	(_tancotf_sloc1_1_0 + 3),a
	mov	r0,_spx
	dec	r0
	movx	a,@r0
	mov	r2,a
	dec	r0
	movx	a,@r0
	mov	r3,a
	dec	r0
	movx	a,@r0
	mov	r4,a
	dec	r0
	movx	a,@r0
	mov	r5,a
	mov	_spx,r0
	mov	dptr,#___fsmul_PARM_2
	mov	a,r2
	movx	@dptr,a
	mov	a,r3
	inc	dptr
	movx	@dptr,a
	mov	a,r4
	inc	dptr
	movx	@dptr,a
	mov	a,r5
	inc	dptr
	movx	@dptr,a
	push	ar0
	mov	a,_spx
	mov	r0,a
	add	a,#0x04
	mov	_spx,a
	mov	a,r5
	movx	@r0,a
	inc	r0
	mov	a,r4
	movx	@r0,a
	inc	r0
	mov	a,r3
	movx	@r0,a
	inc	r0
	mov	a,r2
	movx	@r0,a
	pop	ar0
	mov	dptr,#0x0000
	mov	b,#0xc9
	mov	a,#0x3f
	lcall	___fsmul
	mov	r0,dpl
	mov	r1,dph
	mov	r6,b
	mov	r7,a
	push	ar0
	mov	r0,_spx
	dec	r0
	movx	a,@r0
	mov	r2,a
	dec	r0
	movx	a,@r0
	mov	r3,a
	dec	r0
	movx	a,@r0
	mov	r4,a
	dec	r0
	movx	a,@r0
	mov	r5,a
	mov	_spx,r0
	pop	ar0
	mov	dptr,#___fssub_PARM_2
	mov	a,r0
	movx	@dptr,a
	mov	a,r1
	inc	dptr
	movx	@dptr,a
	mov	a,r6
	inc	dptr
	movx	@dptr,a
	mov	a,r7
	inc	dptr
	movx	@dptr,a
	push	ar0
	mov	a,_spx
	mov	r0,a
	add	a,#0x04
	mov	_spx,a
	mov	a,r5
	movx	@r0,a
	inc	r0
	mov	a,r4
	movx	@r0,a
	inc	r0
	mov	a,r3
	movx	@r0,a
	inc	r0
	mov	a,r2
	movx	@r0,a
	pop	ar0
	mov	dpl,_tancotf_sloc2_1_0
	mov	dph,(_tancotf_sloc2_1_0 + 1)
	mov	b,(_tancotf_sloc2_1_0 + 2)
	mov	a,(_tancotf_sloc2_1_0 + 3)
	lcall	___fssub
	mov	r0,dpl
	mov	r1,dph
	mov	r6,b
	mov	r7,a
	push	ar0
	mov	r0,_spx
	dec	r0
	movx	a,@r0
	mov	r2,a
	dec	r0
	movx	a,@r0
	mov	r3,a
	dec	r0
	movx	a,@r0
	mov	r4,a
	dec	r0
	movx	a,@r0
	mov	r5,a
	mov	_spx,r0
	mov	dptr,#___fsadd_PARM_2
	mov	a,_tancotf_sloc1_1_0
	movx	@dptr,a
	mov	a,(_tancotf_sloc1_1_0 + 1)
	inc	dptr
	movx	@dptr,a
	mov	a,(_tancotf_sloc1_1_0 + 2)
	inc	dptr
	movx	@dptr,a
	mov	a,(_tancotf_sloc1_1_0 + 3)
	inc	dptr
	movx	@dptr,a
	mov	a,_spx
	mov	r0,a
	add	a,#0x04
	mov	_spx,a
	mov	a,r5
	movx	@r0,a
	inc	r0
	mov	a,r4
	movx	@r0,a
	inc	r0
	mov	a,r3
	movx	@r0,a
	inc	r0
	mov	a,r2
	movx	@r0,a
	pop	ar0
	mov	dpl,r0
	mov	dph,r1
	mov	b,r6
	mov	a,r7
	lcall	___fsadd
	mov	r0,dpl
	mov	r1,dph
	mov	r6,b
	mov	r7,a
	push	ar0
	mov	r0,_spx
	dec	r0
	movx	a,@r0
	mov	r2,a
	dec	r0
	movx	a,@r0
	mov	r3,a
	dec	r0
	movx	a,@r0
	mov	r4,a
	dec	r0
	movx	a,@r0
	mov	r5,a
	mov	_spx,r0
	mov	dptr,#___fsmul_PARM_2
	mov	a,r2
	movx	@dptr,a
	mov	a,r3
	inc	dptr
	movx	@dptr,a
	mov	a,r4
	inc	dptr
	movx	@dptr,a
	mov	a,r5
	inc	dptr
	movx	@dptr,a
	mov	a,_spx
	mov	r0,a
	add	a,#0x04
	mov	_spx,a
	mov	a,r7
	movx	@r0,a
	inc	r0
	mov	a,r6
	movx	@r0,a
	inc	r0
	mov	a,r1
	movx	@r0,a
	inc	r0
	pop	acc
	push	acc
	movx	@r0,a
	pop	ar0
	mov	dptr,#0xaa22
	mov	b,#0xfd
	mov	a,#0x39
	lcall	___fsmul
	mov	r2,dpl
	mov	r3,dph
	mov	r4,b
	mov	r5,a
	mov	r0,_spx
	dec	r0
	movx	a,@r0
	push	acc
	dec	r0
	movx	a,@r0
	mov	r1,a
	dec	r0
	movx	a,@r0
	mov	r6,a
	dec	r0
	movx	a,@r0
	mov	r7,a
	mov	_spx,r0
	pop	ar0
	mov	dptr,#___fssub_PARM_2
	mov	a,r2
	movx	@dptr,a
	mov	a,r3
	inc	dptr
	movx	@dptr,a
	mov	a,r4
	inc	dptr
	movx	@dptr,a
	mov	a,r5
	inc	dptr
	movx	@dptr,a
;	tancotf.c:72: if (fabsf(f) < EPS)
	mov	dpl,r0
	mov	dph,r1
	mov	b,r6
	mov	a,r7
	lcall	___fssub
	mov	r4,dpl
	mov	r5,dph
	mov	r6,b
	mov	r7,a
	push	ar0
	mov	a,_spx
	mov	r0,a
	add	a,#0x04
	mov	_spx,a
	mov	a,r7
	movx	@r0,a
	inc	r0
	mov	a,r6
	movx	@r0,a
	inc	r0
	mov	a,r5
	movx	@r0,a
	inc	r0
	mov	a,r4
	movx	@r0,a
	pop	ar0
	mov	dpl,r4
	mov	dph,r5
	mov	b,r6
	mov	a,r7
	lcall	_fabsf
	mov	r0,dpl
	mov	r1,dph
	mov	r2,b
	mov	r3,a
	push	ar0
	mov	r0,_spx
	dec	r0
	movx	a,@r0
	mov	r4,a
	dec	r0
	movx	a,@r0
	mov	r5,a
	dec	r0
	movx	a,@r0
	mov	r6,a
	dec	r0
	movx	a,@r0
	mov	r7,a
	mov	_spx,r0
	mov	dptr,#___fslt_PARM_2
	clr	a
	movx	@dptr,a
	inc	dptr
	movx	@dptr,a
	mov	a,#0x80
	inc	dptr
	movx	@dptr,a
	mov	a,#0x39
	inc	dptr
	movx	@dptr,a
	mov	a,_spx
	mov	r0,a
	add	a,#0x04
	mov	_spx,a
	mov	a,r7
	movx	@r0,a
	inc	r0
	mov	a,r6
	movx	@r0,a
	inc	r0
	mov	a,r5
	movx	@r0,a
	inc	r0
	mov	a,r4
	movx	@r0,a
	pop	ar0
	mov	dpl,r0
	mov	dph,r1
	mov	b,r2
	mov	a,r3
	lcall	___fslt
	mov	a,dpl
	push	acc
	mov	r0,_spx
	dec	r0
	movx	a,@r0
	mov	r4,a
	dec	r0
	movx	a,@r0
	mov	r5,a
	dec	r0
	movx	a,@r0
	mov	r6,a
	dec	r0
	movx	a,@r0
	mov	r7,a
	mov	_spx,r0
	pop	acc
	jz	00104$
;	tancotf.c:74: xnum = f;
	mov	dptr,#_tancotf_xnum_1_26
	mov	a,r4
	movx	@dptr,a
	mov	a,r5
	inc	dptr
	movx	@dptr,a
	mov	a,r6
	inc	dptr
	movx	@dptr,a
	mov	a,r7
	inc	dptr
	movx	@dptr,a
;	tancotf.c:75: xden = 1.0;
	mov	dptr,#_tancotf_xden_1_26
	clr	a
	movx	@dptr,a
	inc	dptr
	movx	@dptr,a
	mov	a,#0x80
	inc	dptr
	movx	@dptr,a
	mov	a,#0x3f
	inc	dptr
	movx	@dptr,a
	ljmp	00105$
00104$:
;	tancotf.c:79: g = f*f;
	mov	dptr,#___fsmul_PARM_2
	mov	a,r4
	movx	@dptr,a
	mov	a,r5
	inc	dptr
	movx	@dptr,a
	mov	a,r6
	inc	dptr
	movx	@dptr,a
	mov	a,r7
	inc	dptr
	movx	@dptr,a
;	tancotf.c:80: xnum = P(f,g);
	push	ar0
	mov	a,_spx
	mov	r0,a
	add	a,#0x04
	mov	_spx,a
	mov	a,r7
	movx	@r0,a
	inc	r0
	mov	a,r6
	movx	@r0,a
	inc	r0
	mov	a,r5
	movx	@r0,a
	inc	r0
	mov	a,r4
	movx	@r0,a
	pop	ar0
	mov	dpl,r4
	mov	dph,r5
	mov	b,r6
	mov	a,r7
	lcall	___fsmul
	mov	_tancotf_sloc2_1_0,dpl
	mov	(_tancotf_sloc2_1_0 + 1),dph
	mov	(_tancotf_sloc2_1_0 + 2),b
	mov	(_tancotf_sloc2_1_0 + 3),a
	mov	r0,_spx
	dec	r0
	movx	a,@r0
	mov	r4,a
	dec	r0
	movx	a,@r0
	mov	r5,a
	dec	r0
	movx	a,@r0
	mov	r6,a
	dec	r0
	movx	a,@r0
	mov	r7,a
	mov	_spx,r0
	mov	dptr,#___fsmul_PARM_2
	mov	a,_tancotf_sloc2_1_0
	movx	@dptr,a
	mov	a,(_tancotf_sloc2_1_0 + 1)
	inc	dptr
	movx	@dptr,a
	mov	a,(_tancotf_sloc2_1_0 + 2)
	inc	dptr
	movx	@dptr,a
	mov	a,(_tancotf_sloc2_1_0 + 3)
	inc	dptr
	movx	@dptr,a
	push	ar0
	mov	a,_spx
	mov	r0,a
	add	a,#0x04
	mov	_spx,a
	mov	a,r7
	movx	@r0,a
	inc	r0
	mov	a,r6
	movx	@r0,a
	inc	r0
	mov	a,r5
	movx	@r0,a
	inc	r0
	mov	a,r4
	movx	@r0,a
	pop	ar0
	mov	dptr,#0x33b8
	mov	b,#0xc4
	mov	a,#0xbd
	lcall	___fsmul
	mov	r0,dpl
	mov	r1,dph
	mov	r2,b
	mov	r3,a
	push	ar0
	mov	r0,_spx
	dec	r0
	movx	a,@r0
	mov	r4,a
	dec	r0
	movx	a,@r0
	mov	r5,a
	dec	r0
	movx	a,@r0
	mov	r6,a
	dec	r0
	movx	a,@r0
	mov	r7,a
	mov	_spx,r0
	mov	dptr,#___fsmul_PARM_2
	mov	a,r4
	movx	@dptr,a
	mov	a,r5
	inc	dptr
	movx	@dptr,a
	mov	a,r6
	inc	dptr
	movx	@dptr,a
	mov	a,r7
	inc	dptr
	movx	@dptr,a
	mov	a,_spx
	mov	r0,a
	add	a,#0x04
	mov	_spx,a
	mov	a,r7
	movx	@r0,a
	inc	r0
	mov	a,r6
	movx	@r0,a
	inc	r0
	mov	a,r5
	movx	@r0,a
	inc	r0
	mov	a,r4
	movx	@r0,a
	pop	ar0
	mov	dpl,r0
	mov	dph,r1
	mov	b,r2
	mov	a,r3
	lcall	___fsmul
	mov	r0,dpl
	mov	r1,dph
	mov	r2,b
	mov	r3,a
	push	ar0
	mov	r0,_spx
	dec	r0
	movx	a,@r0
	mov	r4,a
	dec	r0
	movx	a,@r0
	mov	r5,a
	dec	r0
	movx	a,@r0
	mov	r6,a
	dec	r0
	movx	a,@r0
	mov	r7,a
	mov	_spx,r0
	pop	ar0
	mov	dptr,#___fsadd_PARM_2
	mov	a,r4
	movx	@dptr,a
	mov	a,r5
	inc	dptr
	movx	@dptr,a
	mov	a,r6
	inc	dptr
	movx	@dptr,a
	mov	a,r7
	inc	dptr
	movx	@dptr,a
	mov	dpl,r0
	mov	dph,r1
	mov	b,r2
	mov	a,r3
	lcall	___fsadd
	mov	r4,dpl
	mov	r5,dph
	mov	r6,b
	mov	r7,a
	mov	dptr,#_tancotf_xnum_1_26
	mov	a,r4
	movx	@dptr,a
	mov	a,r5
	inc	dptr
	movx	@dptr,a
	mov	a,r6
	inc	dptr
	movx	@dptr,a
	mov	a,r7
	inc	dptr
	movx	@dptr,a
;	tancotf.c:81: xden = Q(g);
	mov	dptr,#___fsmul_PARM_2
	mov	a,_tancotf_sloc2_1_0
	movx	@dptr,a
	mov	a,(_tancotf_sloc2_1_0 + 1)
	inc	dptr
	movx	@dptr,a
	mov	a,(_tancotf_sloc2_1_0 + 2)
	inc	dptr
	movx	@dptr,a
	mov	a,(_tancotf_sloc2_1_0 + 3)
	inc	dptr
	movx	@dptr,a
	mov	dptr,#0x3375
	mov	b,#0x1f
	mov	a,#0x3c
	lcall	___fsmul
	mov	r4,dpl
	mov	r5,dph
	mov	r6,b
	mov	r7,a
	mov	dptr,#___fsadd_PARM_2
	mov	a,#0xaf
	movx	@dptr,a
	mov	a,#0xb7
	inc	dptr
	movx	@dptr,a
	rr	a
	inc	dptr
	movx	@dptr,a
	mov	a,#0xbe
	inc	dptr
	movx	@dptr,a
	mov	dpl,r4
	mov	dph,r5
	mov	b,r6
	mov	a,r7
	lcall	___fsadd
	mov	r4,dpl
	mov	r5,dph
	mov	r6,b
	mov	r7,a
	mov	dptr,#___fsmul_PARM_2
	mov	a,_tancotf_sloc2_1_0
	movx	@dptr,a
	mov	a,(_tancotf_sloc2_1_0 + 1)
	inc	dptr
	movx	@dptr,a
	mov	a,(_tancotf_sloc2_1_0 + 2)
	inc	dptr
	movx	@dptr,a
	mov	a,(_tancotf_sloc2_1_0 + 3)
	inc	dptr
	movx	@dptr,a
	mov	dpl,r4
	mov	dph,r5
	mov	b,r6
	mov	a,r7
	lcall	___fsmul
	mov	r4,dpl
	mov	r5,dph
	mov	r6,b
	mov	r7,a
	mov	dptr,#___fsadd_PARM_2
	clr	a
	movx	@dptr,a
	inc	dptr
	movx	@dptr,a
	mov	a,#0x80
	inc	dptr
	movx	@dptr,a
	mov	a,#0x3f
	inc	dptr
	movx	@dptr,a
	mov	dpl,r4
	mov	dph,r5
	mov	b,r6
	mov	a,r7
	lcall	___fsadd
	mov	r4,dpl
	mov	r5,dph
	mov	r6,b
	mov	r7,a
	mov	dptr,#_tancotf_xden_1_26
	mov	a,r4
	movx	@dptr,a
	mov	a,r5
	inc	dptr
	movx	@dptr,a
	mov	a,r6
	inc	dptr
	movx	@dptr,a
	mov	a,r7
	inc	dptr
	movx	@dptr,a
00105$:
;	tancotf.c:84: if(n&1)
	mov	a,_tancotf_sloc0_1_0
	jnb	acc.0,00113$
;	tancotf.c:87: if(iscotan) return (-xnum/xden);
	mov	dptr,#_tancotf_PARM_2
	movx	a,@dptr
	jz	00107$
	mov	dptr,#_tancotf_xnum_1_26
	movx	a,@dptr
	mov	r4,a
	inc	dptr
	movx	a,@dptr
	mov	r5,a
	inc	dptr
	movx	a,@dptr
	mov	r6,a
	inc	dptr
	movx	a,@dptr
	cpl	acc.7
	mov	r7,a
	mov	dptr,#_tancotf_xden_1_26
	movx	a,@dptr
	mov	r0,a
	inc	dptr
	movx	a,@dptr
	mov	r1,a
	inc	dptr
	movx	a,@dptr
	mov	r2,a
	inc	dptr
	movx	a,@dptr
	mov	r3,a
	mov	dptr,#___fsdiv_PARM_2
	mov	a,r0
	movx	@dptr,a
	mov	a,r1
	inc	dptr
	movx	@dptr,a
	mov	a,r2
	inc	dptr
	movx	@dptr,a
	mov	a,r3
	inc	dptr
	movx	@dptr,a
	mov	dpl,r4
	mov	dph,r5
	mov	b,r6
	mov	a,r7
	ljmp	___fsdiv
00107$:
;	tancotf.c:88: else return (-xden/xnum);
	mov	dptr,#_tancotf_xden_1_26
	movx	a,@dptr
	mov	r4,a
	inc	dptr
	movx	a,@dptr
	mov	r5,a
	inc	dptr
	movx	a,@dptr
	mov	r6,a
	inc	dptr
	movx	a,@dptr
	cpl	acc.7
	mov	r7,a
	mov	dptr,#_tancotf_xnum_1_26
	movx	a,@dptr
	mov	r0,a
	inc	dptr
	movx	a,@dptr
	mov	r1,a
	inc	dptr
	movx	a,@dptr
	mov	r2,a
	inc	dptr
	movx	a,@dptr
	mov	r3,a
	mov	dptr,#___fsdiv_PARM_2
	mov	a,r0
	movx	@dptr,a
	mov	a,r1
	inc	dptr
	movx	@dptr,a
	mov	a,r2
	inc	dptr
	movx	@dptr,a
	mov	a,r3
	inc	dptr
	movx	@dptr,a
	mov	dpl,r4
	mov	dph,r5
	mov	b,r6
	mov	a,r7
	ljmp	___fsdiv
00113$:
;	tancotf.c:92: if(iscotan) return (xden/xnum);
	mov	dptr,#_tancotf_PARM_2
	movx	a,@dptr
	jz	00110$
	mov	dptr,#_tancotf_xnum_1_26
	movx	a,@dptr
	mov	r4,a
	inc	dptr
	movx	a,@dptr
	mov	r5,a
	inc	dptr
	movx	a,@dptr
	mov	r6,a
	inc	dptr
	movx	a,@dptr
	mov	r7,a
	mov	dptr,#_tancotf_xden_1_26
	movx	a,@dptr
	mov	r0,a
	inc	dptr
	movx	a,@dptr
	mov	r1,a
	inc	dptr
	movx	a,@dptr
	mov	r2,a
	inc	dptr
	movx	a,@dptr
	mov	r3,a
	mov	dptr,#___fsdiv_PARM_2
	mov	a,r4
	movx	@dptr,a
	mov	a,r5
	inc	dptr
	movx	@dptr,a
	mov	a,r6
	inc	dptr
	movx	@dptr,a
	mov	a,r7
	inc	dptr
	movx	@dptr,a
	mov	dpl,r0
	mov	dph,r1
	mov	b,r2
	mov	a,r3
	ljmp	___fsdiv
00110$:
;	tancotf.c:93: else return (xnum/xden);
	mov	dptr,#_tancotf_xden_1_26
	movx	a,@dptr
	mov	r4,a
	inc	dptr
	movx	a,@dptr
	mov	r5,a
	inc	dptr
	movx	a,@dptr
	mov	r6,a
	inc	dptr
	movx	a,@dptr
	mov	r7,a
	mov	dptr,#_tancotf_xnum_1_26
	movx	a,@dptr
	mov	r0,a
	inc	dptr
	movx	a,@dptr
	mov	r1,a
	inc	dptr
	movx	a,@dptr
	mov	r2,a
	inc	dptr
	movx	a,@dptr
	mov	r3,a
	mov	dptr,#___fsdiv_PARM_2
	mov	a,r4
	movx	@dptr,a
	mov	a,r5
	inc	dptr
	movx	@dptr,a
	mov	a,r6
	inc	dptr
	movx	@dptr,a
	mov	a,r7
	inc	dptr
	movx	@dptr,a
	mov	dpl,r0
	mov	dph,r1
	mov	b,r2
	mov	a,r3
	ljmp	___fsdiv
	.area CSEG    (CODE)
	.area CONST   (CODE)
	.area XINIT   (CODE)
	.area CABS    (ABS,CODE)
