                                      1 ;--------------------------------------------------------
                                      2 ; File Created by SDCC : free open source ANSI-C Compiler
                                      3 ; Version 3.6.3 #9771 (MSVC)
                                      4 ;--------------------------------------------------------
                                      5 	.module tanhf
                                      6 	.optsdcc -mmcs51 --model-large --xstack
                                      7 	
                                      8 ;--------------------------------------------------------
                                      9 ; Public variables in this module
                                     10 ;--------------------------------------------------------
                                     11 	.globl _fabsf
                                     12 	.globl _expf
                                     13 	.globl _tanhf
                                     14 ;--------------------------------------------------------
                                     15 ; special function registers
                                     16 ;--------------------------------------------------------
                                     17 	.area RSEG    (ABS,DATA)
      000000                         18 	.org 0x0000
                                     19 ;--------------------------------------------------------
                                     20 ; special function bits
                                     21 ;--------------------------------------------------------
                                     22 	.area RSEG    (ABS,DATA)
      000000                         23 	.org 0x0000
                                     24 ;--------------------------------------------------------
                                     25 ; overlayable register banks
                                     26 ;--------------------------------------------------------
                                     27 	.area REG_BANK_0	(REL,OVR,DATA)
      000000                         28 	.ds 8
                                     29 ;--------------------------------------------------------
                                     30 ; internal ram data
                                     31 ;--------------------------------------------------------
                                     32 	.area DSEG    (DATA)
                                     33 ;--------------------------------------------------------
                                     34 ; overlayable items in internal ram 
                                     35 ;--------------------------------------------------------
                                     36 ;--------------------------------------------------------
                                     37 ; indirectly addressable internal ram data
                                     38 ;--------------------------------------------------------
                                     39 	.area ISEG    (DATA)
                                     40 ;--------------------------------------------------------
                                     41 ; absolute internal ram data
                                     42 ;--------------------------------------------------------
                                     43 	.area IABS    (ABS,DATA)
                                     44 	.area IABS    (ABS,DATA)
                                     45 ;--------------------------------------------------------
                                     46 ; bit data
                                     47 ;--------------------------------------------------------
                                     48 	.area BSEG    (BIT)
                                     49 ;--------------------------------------------------------
                                     50 ; paged external ram data
                                     51 ;--------------------------------------------------------
                                     52 	.area PSEG    (PAG,XDATA)
                                     53 ;--------------------------------------------------------
                                     54 ; external ram data
                                     55 ;--------------------------------------------------------
                                     56 	.area XSEG    (XDATA)
                                     57 ;--------------------------------------------------------
                                     58 ; absolute external ram data
                                     59 ;--------------------------------------------------------
                                     60 	.area XABS    (ABS,XDATA)
                                     61 ;--------------------------------------------------------
                                     62 ; external initialized ram data
                                     63 ;--------------------------------------------------------
                                     64 	.area XISEG   (XDATA)
                                     65 	.area HOME    (CODE)
                                     66 	.area GSINIT0 (CODE)
                                     67 	.area GSINIT1 (CODE)
                                     68 	.area GSINIT2 (CODE)
                                     69 	.area GSINIT3 (CODE)
                                     70 	.area GSINIT4 (CODE)
                                     71 	.area GSINIT5 (CODE)
                                     72 	.area GSINIT  (CODE)
                                     73 	.area GSFINAL (CODE)
                                     74 	.area CSEG    (CODE)
                                     75 ;--------------------------------------------------------
                                     76 ; global & static initialisations
                                     77 ;--------------------------------------------------------
                                     78 	.area HOME    (CODE)
                                     79 	.area GSINIT  (CODE)
                                     80 	.area GSFINAL (CODE)
                                     81 	.area GSINIT  (CODE)
                                     82 ;--------------------------------------------------------
                                     83 ; Home
                                     84 ;--------------------------------------------------------
                                     85 	.area HOME    (CODE)
                                     86 	.area HOME    (CODE)
                                     87 ;--------------------------------------------------------
                                     88 ; code
                                     89 ;--------------------------------------------------------
                                     90 	.area CSEG    (CODE)
                                     91 ;------------------------------------------------------------
                                     92 ;Allocation info for local variables in function 'tanhf'
                                     93 ;------------------------------------------------------------
                                     94 ;x                         Allocated to stack - _bpx +0
                                     95 ;f                         Allocated to stack - _bpx +4
                                     96 ;g                         Allocated to stack - _bpx +8
                                     97 ;r                         Allocated to stack - _bpx +4
                                     98 ;sloc0                     Allocated to stack - _bp +1
                                     99 ;sloc1                     Allocated to stack - _bp +5
                                    100 ;sloc2                     Allocated to stack - _bp +9
                                    101 ;------------------------------------------------------------
                                    102 ;	tanhf.c:50: float tanhf(float x) _FLOAT_FUNC_REENTRANT
                                    103 ;	-----------------------------------------
                                    104 ;	 function tanhf
                                    105 ;	-----------------------------------------
      000000                        106 _tanhf:
                           000007   107 	ar7 = 0x07
                           000006   108 	ar6 = 0x06
                           000005   109 	ar5 = 0x05
                           000004   110 	ar4 = 0x04
                           000003   111 	ar3 = 0x03
                           000002   112 	ar2 = 0x02
                           000001   113 	ar1 = 0x01
                           000000   114 	ar0 = 0x00
      000000 A8*00            [24]  115 	mov	r0,_spx
      000002 05*00            [12]  116 	inc	_spx
      000004 C5*00            [12]  117 	xch	a,_bpx
      000006 F2               [24]  118 	movx	@r0,a
      000007 08               [12]  119 	inc	r0
      000008 E8               [12]  120 	mov	a,r0
      000009 C5*00            [12]  121 	xch	a,_bpx
      00000B C0*00            [24]  122 	push	_bp
      00000D 85 81*00         [24]  123 	mov	_bp,sp
      000010 C8               [12]  124 	xch	a,r0
      000011 E5 81            [12]  125 	mov	a,sp
      000013 24 0C            [12]  126 	add	a,#0x0c
      000015 F5 81            [12]  127 	mov	sp,a
      000017 E5*00            [12]  128 	mov	a,_spx
      000019 24 08            [12]  129 	add	a,#0x08
      00001B F5*00            [12]  130 	mov	_spx,a
      00001D C8               [12]  131 	xch	a,r0
      00001E AF 82            [24]  132 	mov	r7,dpl
      000020 AE 83            [24]  133 	mov	r6,dph
      000022 AD F0            [24]  134 	mov	r5,b
      000024 FC               [12]  135 	mov	r4,a
      000025 A8*00            [24]  136 	mov	r0,_bpx
      000027 EF               [12]  137 	mov	a,r7
      000028 F2               [24]  138 	movx	@r0,a
      000029 08               [12]  139 	inc	r0
      00002A EE               [12]  140 	mov	a,r6
      00002B F2               [24]  141 	movx	@r0,a
      00002C 08               [12]  142 	inc	r0
      00002D ED               [12]  143 	mov	a,r5
      00002E F2               [24]  144 	movx	@r0,a
      00002F 08               [12]  145 	inc	r0
      000030 EC               [12]  146 	mov	a,r4
      000031 F2               [24]  147 	movx	@r0,a
                                    148 ;	tanhf.c:54: f=fabsf(x);
      000032 A8*00            [24]  149 	mov	r0,_bpx
      000034 E2               [24]  150 	movx	a,@r0
      000035 FC               [12]  151 	mov	r4,a
      000036 08               [12]  152 	inc	r0
      000037 E2               [24]  153 	movx	a,@r0
      000038 FD               [12]  154 	mov	r5,a
      000039 08               [12]  155 	inc	r0
      00003A E2               [24]  156 	movx	a,@r0
      00003B FE               [12]  157 	mov	r6,a
      00003C 08               [12]  158 	inc	r0
      00003D E2               [24]  159 	movx	a,@r0
      00003E 8C 82            [24]  160 	mov	dpl,r4
      000040 8D 83            [24]  161 	mov	dph,r5
      000042 8E F0            [24]  162 	mov	b,r6
      000044 12r00r00         [24]  163 	lcall	_fabsf
      000047 A8*00            [24]  164 	mov	r0,_bp
      000049 08               [12]  165 	inc	r0
      00004A A6 82            [24]  166 	mov	@r0,dpl
      00004C 08               [12]  167 	inc	r0
      00004D A6 83            [24]  168 	mov	@r0,dph
      00004F 08               [12]  169 	inc	r0
      000050 A6 F0            [24]  170 	mov	@r0,b
      000052 08               [12]  171 	inc	r0
      000053 F6               [12]  172 	mov	@r0,a
                                    173 ;	tanhf.c:55: if(f>SBIG) r=1.0;
      000054 90r00r00         [24]  174 	mov	dptr,#___fsgt_PARM_2
      000057 74 B0            [12]  175 	mov	a,#0xb0
      000059 F0               [24]  176 	movx	@dptr,a
      00005A 74 2C            [12]  177 	mov	a,#0x2c
      00005C A3               [24]  178 	inc	dptr
      00005D F0               [24]  179 	movx	@dptr,a
      00005E 74 10            [12]  180 	mov	a,#0x10
      000060 A3               [24]  181 	inc	dptr
      000061 F0               [24]  182 	movx	@dptr,a
      000062 74 41            [12]  183 	mov	a,#0x41
      000064 A3               [24]  184 	inc	dptr
      000065 F0               [24]  185 	movx	@dptr,a
      000066 A8*00            [24]  186 	mov	r0,_bp
      000068 08               [12]  187 	inc	r0
      000069 86 82            [24]  188 	mov	dpl,@r0
      00006B 08               [12]  189 	inc	r0
      00006C 86 83            [24]  190 	mov	dph,@r0
      00006E 08               [12]  191 	inc	r0
      00006F 86 F0            [24]  192 	mov	b,@r0
      000071 08               [12]  193 	inc	r0
      000072 E6               [12]  194 	mov	a,@r0
      000073 12r00r00         [24]  195 	lcall	___fsgt
      000076 E5 82            [12]  196 	mov	a,dpl
      000078 60 14            [24]  197 	jz	00108$
      00007A E5*00            [12]  198 	mov	a,_bpx
      00007C 24 04            [12]  199 	add	a,#0x04
      00007E F8               [12]  200 	mov	r0,a
      00007F E4               [12]  201 	clr	a
      000080 F2               [24]  202 	movx	@r0,a
      000081 08               [12]  203 	inc	r0
      000082 F2               [24]  204 	movx	@r0,a
      000083 08               [12]  205 	inc	r0
      000084 74 80            [12]  206 	mov	a,#0x80
      000086 F2               [24]  207 	movx	@r0,a
      000087 08               [12]  208 	inc	r0
      000088 74 3F            [12]  209 	mov	a,#0x3f
      00008A F2               [24]  210 	movx	@r0,a
      00008B 02r03r6A         [24]  211 	ljmp	00109$
      00008E                        212 00108$:
                                    213 ;	tanhf.c:56: else if(f>K1)
      00008E 90r00r00         [24]  214 	mov	dptr,#___fsgt_PARM_2
      000091 74 54            [12]  215 	mov	a,#0x54
      000093 F0               [24]  216 	movx	@dptr,a
      000094 74 9F            [12]  217 	mov	a,#0x9f
      000096 A3               [24]  218 	inc	dptr
      000097 F0               [24]  219 	movx	@dptr,a
      000098 74 0C            [12]  220 	mov	a,#0x0c
      00009A A3               [24]  221 	inc	dptr
      00009B F0               [24]  222 	movx	@dptr,a
      00009C 74 3F            [12]  223 	mov	a,#0x3f
      00009E A3               [24]  224 	inc	dptr
      00009F F0               [24]  225 	movx	@dptr,a
      0000A0 A8*00            [24]  226 	mov	r0,_bp
      0000A2 08               [12]  227 	inc	r0
      0000A3 86 82            [24]  228 	mov	dpl,@r0
      0000A5 08               [12]  229 	inc	r0
      0000A6 86 83            [24]  230 	mov	dph,@r0
      0000A8 08               [12]  231 	inc	r0
      0000A9 86 F0            [24]  232 	mov	b,@r0
      0000AB 08               [12]  233 	inc	r0
      0000AC E6               [12]  234 	mov	a,@r0
      0000AD 12r00r00         [24]  235 	lcall	___fsgt
      0000B0 E5 82            [12]  236 	mov	a,dpl
      0000B2 70 03            [24]  237 	jnz	00127$
      0000B4 02r01rD3         [24]  238 	ljmp	00105$
      0000B7                        239 00127$:
                                    240 ;	tanhf.c:58: r=0.5-1.0/(expf(f+f)+1.0);
      0000B7 A8*00            [24]  241 	mov	r0,_bp
      0000B9 08               [12]  242 	inc	r0
      0000BA 90r00r00         [24]  243 	mov	dptr,#___fsadd_PARM_2
      0000BD E6               [12]  244 	mov	a,@r0
      0000BE F0               [24]  245 	movx	@dptr,a
      0000BF 08               [12]  246 	inc	r0
      0000C0 E6               [12]  247 	mov	a,@r0
      0000C1 A3               [24]  248 	inc	dptr
      0000C2 F0               [24]  249 	movx	@dptr,a
      0000C3 08               [12]  250 	inc	r0
      0000C4 E6               [12]  251 	mov	a,@r0
      0000C5 A3               [24]  252 	inc	dptr
      0000C6 F0               [24]  253 	movx	@dptr,a
      0000C7 08               [12]  254 	inc	r0
      0000C8 E6               [12]  255 	mov	a,@r0
      0000C9 A3               [24]  256 	inc	dptr
      0000CA F0               [24]  257 	movx	@dptr,a
      0000CB A8*00            [24]  258 	mov	r0,_bp
      0000CD 08               [12]  259 	inc	r0
      0000CE 86 82            [24]  260 	mov	dpl,@r0
      0000D0 08               [12]  261 	inc	r0
      0000D1 86 83            [24]  262 	mov	dph,@r0
      0000D3 08               [12]  263 	inc	r0
      0000D4 86 F0            [24]  264 	mov	b,@r0
      0000D6 08               [12]  265 	inc	r0
      0000D7 E6               [12]  266 	mov	a,@r0
      0000D8 12r00r00         [24]  267 	lcall	___fsadd
      0000DB A8*00            [24]  268 	mov	r0,_bp
      0000DD 08               [12]  269 	inc	r0
      0000DE A6 82            [24]  270 	mov	@r0,dpl
      0000E0 08               [12]  271 	inc	r0
      0000E1 A6 83            [24]  272 	mov	@r0,dph
      0000E3 08               [12]  273 	inc	r0
      0000E4 A6 F0            [24]  274 	mov	@r0,b
      0000E6 08               [12]  275 	inc	r0
      0000E7 F6               [12]  276 	mov	@r0,a
      0000E8 A8*00            [24]  277 	mov	r0,_bp
      0000EA 08               [12]  278 	inc	r0
      0000EB 86 82            [24]  279 	mov	dpl,@r0
      0000ED 08               [12]  280 	inc	r0
      0000EE 86 83            [24]  281 	mov	dph,@r0
      0000F0 08               [12]  282 	inc	r0
      0000F1 86 F0            [24]  283 	mov	b,@r0
      0000F3 08               [12]  284 	inc	r0
      0000F4 E6               [12]  285 	mov	a,@r0
      0000F5 12r00r00         [24]  286 	lcall	_expf
      0000F8 A8*00            [24]  287 	mov	r0,_bp
      0000FA 08               [12]  288 	inc	r0
      0000FB A6 82            [24]  289 	mov	@r0,dpl
      0000FD 08               [12]  290 	inc	r0
      0000FE A6 83            [24]  291 	mov	@r0,dph
      000100 08               [12]  292 	inc	r0
      000101 A6 F0            [24]  293 	mov	@r0,b
      000103 08               [12]  294 	inc	r0
      000104 F6               [12]  295 	mov	@r0,a
      000105 90r00r00         [24]  296 	mov	dptr,#___fsadd_PARM_2
      000108 E4               [12]  297 	clr	a
      000109 F0               [24]  298 	movx	@dptr,a
      00010A A3               [24]  299 	inc	dptr
      00010B F0               [24]  300 	movx	@dptr,a
      00010C 74 80            [12]  301 	mov	a,#0x80
      00010E A3               [24]  302 	inc	dptr
      00010F F0               [24]  303 	movx	@dptr,a
      000110 74 3F            [12]  304 	mov	a,#0x3f
      000112 A3               [24]  305 	inc	dptr
      000113 F0               [24]  306 	movx	@dptr,a
      000114 A8*00            [24]  307 	mov	r0,_bp
      000116 08               [12]  308 	inc	r0
      000117 86 82            [24]  309 	mov	dpl,@r0
      000119 08               [12]  310 	inc	r0
      00011A 86 83            [24]  311 	mov	dph,@r0
      00011C 08               [12]  312 	inc	r0
      00011D 86 F0            [24]  313 	mov	b,@r0
      00011F 08               [12]  314 	inc	r0
      000120 E6               [12]  315 	mov	a,@r0
      000121 12r00r00         [24]  316 	lcall	___fsadd
      000124 A8*00            [24]  317 	mov	r0,_bp
      000126 08               [12]  318 	inc	r0
      000127 A6 82            [24]  319 	mov	@r0,dpl
      000129 08               [12]  320 	inc	r0
      00012A A6 83            [24]  321 	mov	@r0,dph
      00012C 08               [12]  322 	inc	r0
      00012D A6 F0            [24]  323 	mov	@r0,b
      00012F 08               [12]  324 	inc	r0
      000130 F6               [12]  325 	mov	@r0,a
      000131 A8*00            [24]  326 	mov	r0,_bp
      000133 08               [12]  327 	inc	r0
      000134 90r00r00         [24]  328 	mov	dptr,#___fsdiv_PARM_2
      000137 E6               [12]  329 	mov	a,@r0
      000138 F0               [24]  330 	movx	@dptr,a
      000139 08               [12]  331 	inc	r0
      00013A E6               [12]  332 	mov	a,@r0
      00013B A3               [24]  333 	inc	dptr
      00013C F0               [24]  334 	movx	@dptr,a
      00013D 08               [12]  335 	inc	r0
      00013E E6               [12]  336 	mov	a,@r0
      00013F A3               [24]  337 	inc	dptr
      000140 F0               [24]  338 	movx	@dptr,a
      000141 08               [12]  339 	inc	r0
      000142 E6               [12]  340 	mov	a,@r0
      000143 A3               [24]  341 	inc	dptr
      000144 F0               [24]  342 	movx	@dptr,a
      000145 90 00 00         [24]  343 	mov	dptr,#0x0000
      000148 75 F0 80         [24]  344 	mov	b,#0x80
      00014B 74 3F            [12]  345 	mov	a,#0x3f
      00014D 12r00r00         [24]  346 	lcall	___fsdiv
      000150 A8*00            [24]  347 	mov	r0,_bp
      000152 08               [12]  348 	inc	r0
      000153 A6 82            [24]  349 	mov	@r0,dpl
      000155 08               [12]  350 	inc	r0
      000156 A6 83            [24]  351 	mov	@r0,dph
      000158 08               [12]  352 	inc	r0
      000159 A6 F0            [24]  353 	mov	@r0,b
      00015B 08               [12]  354 	inc	r0
      00015C F6               [12]  355 	mov	@r0,a
      00015D A8*00            [24]  356 	mov	r0,_bp
      00015F 08               [12]  357 	inc	r0
      000160 90r00r00         [24]  358 	mov	dptr,#___fssub_PARM_2
      000163 E6               [12]  359 	mov	a,@r0
      000164 F0               [24]  360 	movx	@dptr,a
      000165 08               [12]  361 	inc	r0
      000166 E6               [12]  362 	mov	a,@r0
      000167 A3               [24]  363 	inc	dptr
      000168 F0               [24]  364 	movx	@dptr,a
      000169 08               [12]  365 	inc	r0
      00016A E6               [12]  366 	mov	a,@r0
      00016B A3               [24]  367 	inc	dptr
      00016C F0               [24]  368 	movx	@dptr,a
      00016D 08               [12]  369 	inc	r0
      00016E E6               [12]  370 	mov	a,@r0
      00016F A3               [24]  371 	inc	dptr
      000170 F0               [24]  372 	movx	@dptr,a
                                    373 ;	tanhf.c:59: r+=r;
      000171 90 00 00         [24]  374 	mov	dptr,#(0x00&0x00ff)
      000174 E4               [12]  375 	clr	a
      000175 F5 F0            [12]  376 	mov	b,a
      000177 74 3F            [12]  377 	mov	a,#0x3f
      000179 12r00r00         [24]  378 	lcall	___fssub
      00017C A8*00            [24]  379 	mov	r0,_bp
      00017E 08               [12]  380 	inc	r0
      00017F A6 82            [24]  381 	mov	@r0,dpl
      000181 08               [12]  382 	inc	r0
      000182 A6 83            [24]  383 	mov	@r0,dph
      000184 08               [12]  384 	inc	r0
      000185 A6 F0            [24]  385 	mov	@r0,b
      000187 08               [12]  386 	inc	r0
      000188 F6               [12]  387 	mov	@r0,a
      000189 A8*00            [24]  388 	mov	r0,_bp
      00018B 08               [12]  389 	inc	r0
      00018C 90r00r00         [24]  390 	mov	dptr,#___fsadd_PARM_2
      00018F E6               [12]  391 	mov	a,@r0
      000190 F0               [24]  392 	movx	@dptr,a
      000191 08               [12]  393 	inc	r0
      000192 E6               [12]  394 	mov	a,@r0
      000193 A3               [24]  395 	inc	dptr
      000194 F0               [24]  396 	movx	@dptr,a
      000195 08               [12]  397 	inc	r0
      000196 E6               [12]  398 	mov	a,@r0
      000197 A3               [24]  399 	inc	dptr
      000198 F0               [24]  400 	movx	@dptr,a
      000199 08               [12]  401 	inc	r0
      00019A E6               [12]  402 	mov	a,@r0
      00019B A3               [24]  403 	inc	dptr
      00019C F0               [24]  404 	movx	@dptr,a
      00019D A8*00            [24]  405 	mov	r0,_bp
      00019F 08               [12]  406 	inc	r0
      0001A0 86 82            [24]  407 	mov	dpl,@r0
      0001A2 08               [12]  408 	inc	r0
      0001A3 86 83            [24]  409 	mov	dph,@r0
      0001A5 08               [12]  410 	inc	r0
      0001A6 86 F0            [24]  411 	mov	b,@r0
      0001A8 08               [12]  412 	inc	r0
      0001A9 E6               [12]  413 	mov	a,@r0
      0001AA 12r00r00         [24]  414 	lcall	___fsadd
      0001AD A8*00            [24]  415 	mov	r0,_bp
      0001AF 08               [12]  416 	inc	r0
      0001B0 A6 82            [24]  417 	mov	@r0,dpl
      0001B2 08               [12]  418 	inc	r0
      0001B3 A6 83            [24]  419 	mov	@r0,dph
      0001B5 08               [12]  420 	inc	r0
      0001B6 A6 F0            [24]  421 	mov	@r0,b
      0001B8 08               [12]  422 	inc	r0
      0001B9 F6               [12]  423 	mov	@r0,a
      0001BA A8*00            [24]  424 	mov	r0,_bp
      0001BC 08               [12]  425 	inc	r0
      0001BD E5*00            [12]  426 	mov	a,_bpx
      0001BF 24 04            [12]  427 	add	a,#0x04
      0001C1 F9               [12]  428 	mov	r1,a
      0001C2 E6               [12]  429 	mov	a,@r0
      0001C3 F3               [24]  430 	movx	@r1,a
      0001C4 08               [12]  431 	inc	r0
      0001C5 09               [12]  432 	inc	r1
      0001C6 E6               [12]  433 	mov	a,@r0
      0001C7 F3               [24]  434 	movx	@r1,a
      0001C8 08               [12]  435 	inc	r0
      0001C9 09               [12]  436 	inc	r1
      0001CA E6               [12]  437 	mov	a,@r0
      0001CB F3               [24]  438 	movx	@r1,a
      0001CC 08               [12]  439 	inc	r0
      0001CD 09               [12]  440 	inc	r1
      0001CE E6               [12]  441 	mov	a,@r0
      0001CF F3               [24]  442 	movx	@r1,a
      0001D0 02r03r6A         [24]  443 	ljmp	00109$
      0001D3                        444 00105$:
                                    445 ;	tanhf.c:61: else if(f<EPS) r=f;
      0001D3 90r00r00         [24]  446 	mov	dptr,#___fslt_PARM_2
      0001D6 E4               [12]  447 	clr	a
      0001D7 F0               [24]  448 	movx	@dptr,a
      0001D8 A3               [24]  449 	inc	dptr
      0001D9 F0               [24]  450 	movx	@dptr,a
      0001DA 74 80            [12]  451 	mov	a,#0x80
      0001DC A3               [24]  452 	inc	dptr
      0001DD F0               [24]  453 	movx	@dptr,a
      0001DE 74 39            [12]  454 	mov	a,#0x39
      0001E0 A3               [24]  455 	inc	dptr
      0001E1 F0               [24]  456 	movx	@dptr,a
      0001E2 A8*00            [24]  457 	mov	r0,_bp
      0001E4 08               [12]  458 	inc	r0
      0001E5 86 82            [24]  459 	mov	dpl,@r0
      0001E7 08               [12]  460 	inc	r0
      0001E8 86 83            [24]  461 	mov	dph,@r0
      0001EA 08               [12]  462 	inc	r0
      0001EB 86 F0            [24]  463 	mov	b,@r0
      0001ED 08               [12]  464 	inc	r0
      0001EE E6               [12]  465 	mov	a,@r0
      0001EF 12r00r00         [24]  466 	lcall	___fslt
      0001F2 E5 82            [12]  467 	mov	a,dpl
      0001F4 60 19            [24]  468 	jz	00102$
      0001F6 A8*00            [24]  469 	mov	r0,_bp
      0001F8 08               [12]  470 	inc	r0
      0001F9 E5*00            [12]  471 	mov	a,_bpx
      0001FB 24 04            [12]  472 	add	a,#0x04
      0001FD F9               [12]  473 	mov	r1,a
      0001FE E6               [12]  474 	mov	a,@r0
      0001FF F3               [24]  475 	movx	@r1,a
      000200 08               [12]  476 	inc	r0
      000201 09               [12]  477 	inc	r1
      000202 E6               [12]  478 	mov	a,@r0
      000203 F3               [24]  479 	movx	@r1,a
      000204 08               [12]  480 	inc	r0
      000205 09               [12]  481 	inc	r1
      000206 E6               [12]  482 	mov	a,@r0
      000207 F3               [24]  483 	movx	@r1,a
      000208 08               [12]  484 	inc	r0
      000209 09               [12]  485 	inc	r1
      00020A E6               [12]  486 	mov	a,@r0
      00020B F3               [24]  487 	movx	@r1,a
      00020C 02r03r6A         [24]  488 	ljmp	00109$
      00020F                        489 00102$:
                                    490 ;	tanhf.c:64: g=f*f;
      00020F A8*00            [24]  491 	mov	r0,_bp
      000211 08               [12]  492 	inc	r0
      000212 90r00r00         [24]  493 	mov	dptr,#___fsmul_PARM_2
      000215 E6               [12]  494 	mov	a,@r0
      000216 F0               [24]  495 	movx	@dptr,a
      000217 08               [12]  496 	inc	r0
      000218 E6               [12]  497 	mov	a,@r0
      000219 A3               [24]  498 	inc	dptr
      00021A F0               [24]  499 	movx	@dptr,a
      00021B 08               [12]  500 	inc	r0
      00021C E6               [12]  501 	mov	a,@r0
      00021D A3               [24]  502 	inc	dptr
      00021E F0               [24]  503 	movx	@dptr,a
      00021F 08               [12]  504 	inc	r0
      000220 E6               [12]  505 	mov	a,@r0
      000221 A3               [24]  506 	inc	dptr
      000222 F0               [24]  507 	movx	@dptr,a
                                    508 ;	tanhf.c:65: r=f+f*(P(g)/Q(g));
      000223 A8*00            [24]  509 	mov	r0,_bp
      000225 08               [12]  510 	inc	r0
      000226 86 82            [24]  511 	mov	dpl,@r0
      000228 08               [12]  512 	inc	r0
      000229 86 83            [24]  513 	mov	dph,@r0
      00022B 08               [12]  514 	inc	r0
      00022C 86 F0            [24]  515 	mov	b,@r0
      00022E 08               [12]  516 	inc	r0
      00022F E6               [12]  517 	mov	a,@r0
      000230 12r00r00         [24]  518 	lcall	___fsmul
      000233 C8               [12]  519 	xch	a,r0
      000234 E5*00            [12]  520 	mov	a,_bp
      000236 24 05            [12]  521 	add	a,#0x05
      000238 C8               [12]  522 	xch	a,r0
      000239 A6 82            [24]  523 	mov	@r0,dpl
      00023B 08               [12]  524 	inc	r0
      00023C A6 83            [24]  525 	mov	@r0,dph
      00023E 08               [12]  526 	inc	r0
      00023F A6 F0            [24]  527 	mov	@r0,b
      000241 08               [12]  528 	inc	r0
      000242 F6               [12]  529 	mov	@r0,a
      000243 E5*00            [12]  530 	mov	a,_bp
      000245 24 05            [12]  531 	add	a,#0x05
      000247 F8               [12]  532 	mov	r0,a
      000248 90r00r00         [24]  533 	mov	dptr,#___fsmul_PARM_2
      00024B E6               [12]  534 	mov	a,@r0
      00024C F0               [24]  535 	movx	@dptr,a
      00024D 08               [12]  536 	inc	r0
      00024E E6               [12]  537 	mov	a,@r0
      00024F A3               [24]  538 	inc	dptr
      000250 F0               [24]  539 	movx	@dptr,a
      000251 08               [12]  540 	inc	r0
      000252 E6               [12]  541 	mov	a,@r0
      000253 A3               [24]  542 	inc	dptr
      000254 F0               [24]  543 	movx	@dptr,a
      000255 08               [12]  544 	inc	r0
      000256 E6               [12]  545 	mov	a,@r0
      000257 A3               [24]  546 	inc	dptr
      000258 F0               [24]  547 	movx	@dptr,a
      000259 90 11 B2         [24]  548 	mov	dptr,#0x11b2
      00025C 75 F0 7B         [24]  549 	mov	b,#0x7b
      00025F 74 BB            [12]  550 	mov	a,#0xbb
      000261 12r00r00         [24]  551 	lcall	___fsmul
      000264 AC 82            [24]  552 	mov	r4,dpl
      000266 AD 83            [24]  553 	mov	r5,dph
      000268 AE F0            [24]  554 	mov	r6,b
      00026A FF               [12]  555 	mov	r7,a
      00026B 90r00r00         [24]  556 	mov	dptr,#___fsadd_PARM_2
      00026E 74 C6            [12]  557 	mov	a,#0xc6
      000270 F0               [24]  558 	movx	@dptr,a
      000271 74 E2            [12]  559 	mov	a,#0xe2
      000273 A3               [24]  560 	inc	dptr
      000274 F0               [24]  561 	movx	@dptr,a
      000275 74 52            [12]  562 	mov	a,#0x52
      000277 A3               [24]  563 	inc	dptr
      000278 F0               [24]  564 	movx	@dptr,a
      000279 74 BF            [12]  565 	mov	a,#0xbf
      00027B A3               [24]  566 	inc	dptr
      00027C F0               [24]  567 	movx	@dptr,a
      00027D 8C 82            [24]  568 	mov	dpl,r4
      00027F 8D 83            [24]  569 	mov	dph,r5
      000281 8E F0            [24]  570 	mov	b,r6
      000283 EF               [12]  571 	mov	a,r7
      000284 12r00r00         [24]  572 	lcall	___fsadd
      000287 AC 82            [24]  573 	mov	r4,dpl
      000289 AD 83            [24]  574 	mov	r5,dph
      00028B AE F0            [24]  575 	mov	r6,b
      00028D FF               [12]  576 	mov	r7,a
      00028E E5*00            [12]  577 	mov	a,_bp
      000290 24 05            [12]  578 	add	a,#0x05
      000292 F8               [12]  579 	mov	r0,a
      000293 90r00r00         [24]  580 	mov	dptr,#___fsmul_PARM_2
      000296 E6               [12]  581 	mov	a,@r0
      000297 F0               [24]  582 	movx	@dptr,a
      000298 08               [12]  583 	inc	r0
      000299 E6               [12]  584 	mov	a,@r0
      00029A A3               [24]  585 	inc	dptr
      00029B F0               [24]  586 	movx	@dptr,a
      00029C 08               [12]  587 	inc	r0
      00029D E6               [12]  588 	mov	a,@r0
      00029E A3               [24]  589 	inc	dptr
      00029F F0               [24]  590 	movx	@dptr,a
      0002A0 08               [12]  591 	inc	r0
      0002A1 E6               [12]  592 	mov	a,@r0
      0002A2 A3               [24]  593 	inc	dptr
      0002A3 F0               [24]  594 	movx	@dptr,a
      0002A4 8C 82            [24]  595 	mov	dpl,r4
      0002A6 8D 83            [24]  596 	mov	dph,r5
      0002A8 8E F0            [24]  597 	mov	b,r6
      0002AA EF               [12]  598 	mov	a,r7
      0002AB 12r00r00         [24]  599 	lcall	___fsmul
      0002AE C8               [12]  600 	xch	a,r0
      0002AF E5*00            [12]  601 	mov	a,_bp
      0002B1 24 09            [12]  602 	add	a,#0x09
      0002B3 C8               [12]  603 	xch	a,r0
      0002B4 A6 82            [24]  604 	mov	@r0,dpl
      0002B6 08               [12]  605 	inc	r0
      0002B7 A6 83            [24]  606 	mov	@r0,dph
      0002B9 08               [12]  607 	inc	r0
      0002BA A6 F0            [24]  608 	mov	@r0,b
      0002BC 08               [12]  609 	inc	r0
      0002BD F6               [12]  610 	mov	@r0,a
      0002BE 90r00r00         [24]  611 	mov	dptr,#___fsadd_PARM_2
      0002C1 74 1A            [12]  612 	mov	a,#0x1a
      0002C3 F0               [24]  613 	movx	@dptr,a
      0002C4 74 2A            [12]  614 	mov	a,#0x2a
      0002C6 A3               [24]  615 	inc	dptr
      0002C7 F0               [24]  616 	movx	@dptr,a
      0002C8 74 1E            [12]  617 	mov	a,#0x1e
      0002CA A3               [24]  618 	inc	dptr
      0002CB F0               [24]  619 	movx	@dptr,a
      0002CC 74 40            [12]  620 	mov	a,#0x40
      0002CE A3               [24]  621 	inc	dptr
      0002CF F0               [24]  622 	movx	@dptr,a
      0002D0 E5*00            [12]  623 	mov	a,_bp
      0002D2 24 05            [12]  624 	add	a,#0x05
      0002D4 F8               [12]  625 	mov	r0,a
      0002D5 86 82            [24]  626 	mov	dpl,@r0
      0002D7 08               [12]  627 	inc	r0
      0002D8 86 83            [24]  628 	mov	dph,@r0
      0002DA 08               [12]  629 	inc	r0
      0002DB 86 F0            [24]  630 	mov	b,@r0
      0002DD 08               [12]  631 	inc	r0
      0002DE E6               [12]  632 	mov	a,@r0
      0002DF 12r00r00         [24]  633 	lcall	___fsadd
      0002E2 AA 82            [24]  634 	mov	r2,dpl
      0002E4 AB 83            [24]  635 	mov	r3,dph
      0002E6 AE F0            [24]  636 	mov	r6,b
      0002E8 FF               [12]  637 	mov	r7,a
      0002E9 90r00r00         [24]  638 	mov	dptr,#___fsdiv_PARM_2
      0002EC EA               [12]  639 	mov	a,r2
      0002ED F0               [24]  640 	movx	@dptr,a
      0002EE EB               [12]  641 	mov	a,r3
      0002EF A3               [24]  642 	inc	dptr
      0002F0 F0               [24]  643 	movx	@dptr,a
      0002F1 EE               [12]  644 	mov	a,r6
      0002F2 A3               [24]  645 	inc	dptr
      0002F3 F0               [24]  646 	movx	@dptr,a
      0002F4 EF               [12]  647 	mov	a,r7
      0002F5 A3               [24]  648 	inc	dptr
      0002F6 F0               [24]  649 	movx	@dptr,a
      0002F7 E5*00            [12]  650 	mov	a,_bp
      0002F9 24 09            [12]  651 	add	a,#0x09
      0002FB F8               [12]  652 	mov	r0,a
      0002FC 86 82            [24]  653 	mov	dpl,@r0
      0002FE 08               [12]  654 	inc	r0
      0002FF 86 83            [24]  655 	mov	dph,@r0
      000301 08               [12]  656 	inc	r0
      000302 86 F0            [24]  657 	mov	b,@r0
      000304 08               [12]  658 	inc	r0
      000305 E6               [12]  659 	mov	a,@r0
      000306 12r00r00         [24]  660 	lcall	___fsdiv
      000309 AC 82            [24]  661 	mov	r4,dpl
      00030B AD 83            [24]  662 	mov	r5,dph
      00030D AE F0            [24]  663 	mov	r6,b
      00030F FF               [12]  664 	mov	r7,a
      000310 90r00r00         [24]  665 	mov	dptr,#___fsmul_PARM_2
      000313 EC               [12]  666 	mov	a,r4
      000314 F0               [24]  667 	movx	@dptr,a
      000315 ED               [12]  668 	mov	a,r5
      000316 A3               [24]  669 	inc	dptr
      000317 F0               [24]  670 	movx	@dptr,a
      000318 EE               [12]  671 	mov	a,r6
      000319 A3               [24]  672 	inc	dptr
      00031A F0               [24]  673 	movx	@dptr,a
      00031B EF               [12]  674 	mov	a,r7
      00031C A3               [24]  675 	inc	dptr
      00031D F0               [24]  676 	movx	@dptr,a
      00031E A8*00            [24]  677 	mov	r0,_bp
      000320 08               [12]  678 	inc	r0
      000321 86 82            [24]  679 	mov	dpl,@r0
      000323 08               [12]  680 	inc	r0
      000324 86 83            [24]  681 	mov	dph,@r0
      000326 08               [12]  682 	inc	r0
      000327 86 F0            [24]  683 	mov	b,@r0
      000329 08               [12]  684 	inc	r0
      00032A E6               [12]  685 	mov	a,@r0
      00032B 12r00r00         [24]  686 	lcall	___fsmul
      00032E AC 82            [24]  687 	mov	r4,dpl
      000330 AD 83            [24]  688 	mov	r5,dph
      000332 AE F0            [24]  689 	mov	r6,b
      000334 FF               [12]  690 	mov	r7,a
      000335 90r00r00         [24]  691 	mov	dptr,#___fsadd_PARM_2
      000338 EC               [12]  692 	mov	a,r4
      000339 F0               [24]  693 	movx	@dptr,a
      00033A ED               [12]  694 	mov	a,r5
      00033B A3               [24]  695 	inc	dptr
      00033C F0               [24]  696 	movx	@dptr,a
      00033D EE               [12]  697 	mov	a,r6
      00033E A3               [24]  698 	inc	dptr
      00033F F0               [24]  699 	movx	@dptr,a
      000340 EF               [12]  700 	mov	a,r7
      000341 A3               [24]  701 	inc	dptr
      000342 F0               [24]  702 	movx	@dptr,a
      000343 A8*00            [24]  703 	mov	r0,_bp
      000345 08               [12]  704 	inc	r0
      000346 86 82            [24]  705 	mov	dpl,@r0
      000348 08               [12]  706 	inc	r0
      000349 86 83            [24]  707 	mov	dph,@r0
      00034B 08               [12]  708 	inc	r0
      00034C 86 F0            [24]  709 	mov	b,@r0
      00034E 08               [12]  710 	inc	r0
      00034F E6               [12]  711 	mov	a,@r0
      000350 12r00r00         [24]  712 	lcall	___fsadd
      000353 AC 82            [24]  713 	mov	r4,dpl
      000355 AD 83            [24]  714 	mov	r5,dph
      000357 AE F0            [24]  715 	mov	r6,b
      000359 FF               [12]  716 	mov	r7,a
      00035A E5*00            [12]  717 	mov	a,_bpx
      00035C 24 04            [12]  718 	add	a,#0x04
      00035E F8               [12]  719 	mov	r0,a
      00035F EC               [12]  720 	mov	a,r4
      000360 F2               [24]  721 	movx	@r0,a
      000361 08               [12]  722 	inc	r0
      000362 ED               [12]  723 	mov	a,r5
      000363 F2               [24]  724 	movx	@r0,a
      000364 08               [12]  725 	inc	r0
      000365 EE               [12]  726 	mov	a,r6
      000366 F2               [24]  727 	movx	@r0,a
      000367 08               [12]  728 	inc	r0
      000368 EF               [12]  729 	mov	a,r7
      000369 F2               [24]  730 	movx	@r0,a
      00036A                        731 00109$:
                                    732 ;	tanhf.c:67: if(x<0.0) r=-r;
      00036A A8*00            [24]  733 	mov	r0,_bpx
      00036C E2               [24]  734 	movx	a,@r0
      00036D FC               [12]  735 	mov	r4,a
      00036E 08               [12]  736 	inc	r0
      00036F E2               [24]  737 	movx	a,@r0
      000370 FD               [12]  738 	mov	r5,a
      000371 08               [12]  739 	inc	r0
      000372 E2               [24]  740 	movx	a,@r0
      000373 FE               [12]  741 	mov	r6,a
      000374 08               [12]  742 	inc	r0
      000375 E2               [24]  743 	movx	a,@r0
      000376 FF               [12]  744 	mov	r7,a
      000377 90r00r00         [24]  745 	mov	dptr,#___fslt_PARM_2
      00037A E4               [12]  746 	clr	a
      00037B F0               [24]  747 	movx	@dptr,a
      00037C A3               [24]  748 	inc	dptr
      00037D F0               [24]  749 	movx	@dptr,a
      00037E A3               [24]  750 	inc	dptr
      00037F F0               [24]  751 	movx	@dptr,a
      000380 A3               [24]  752 	inc	dptr
      000381 F0               [24]  753 	movx	@dptr,a
      000382 8C 82            [24]  754 	mov	dpl,r4
      000384 8D 83            [24]  755 	mov	dph,r5
      000386 8E F0            [24]  756 	mov	b,r6
      000388 EF               [12]  757 	mov	a,r7
      000389 12r00r00         [24]  758 	lcall	___fslt
      00038C E5 82            [12]  759 	mov	a,dpl
      00038E 60 22            [24]  760 	jz	00111$
      000390 E5*00            [12]  761 	mov	a,_bpx
      000392 24 04            [12]  762 	add	a,#0x04
      000394 F8               [12]  763 	mov	r0,a
      000395 E2               [24]  764 	movx	a,@r0
      000396 FC               [12]  765 	mov	r4,a
      000397 08               [12]  766 	inc	r0
      000398 E2               [24]  767 	movx	a,@r0
      000399 FD               [12]  768 	mov	r5,a
      00039A 08               [12]  769 	inc	r0
      00039B E2               [24]  770 	movx	a,@r0
      00039C FE               [12]  771 	mov	r6,a
      00039D 08               [12]  772 	inc	r0
      00039E E2               [24]  773 	movx	a,@r0
      00039F B2 E7            [12]  774 	cpl	acc.7
      0003A1 FF               [12]  775 	mov	r7,a
      0003A2 E5*00            [12]  776 	mov	a,_bpx
      0003A4 24 04            [12]  777 	add	a,#0x04
      0003A6 F8               [12]  778 	mov	r0,a
      0003A7 EC               [12]  779 	mov	a,r4
      0003A8 F2               [24]  780 	movx	@r0,a
      0003A9 08               [12]  781 	inc	r0
      0003AA ED               [12]  782 	mov	a,r5
      0003AB F2               [24]  783 	movx	@r0,a
      0003AC 08               [12]  784 	inc	r0
      0003AD EE               [12]  785 	mov	a,r6
      0003AE F2               [24]  786 	movx	@r0,a
      0003AF 08               [12]  787 	inc	r0
      0003B0 EF               [12]  788 	mov	a,r7
      0003B1 F2               [24]  789 	movx	@r0,a
      0003B2                        790 00111$:
                                    791 ;	tanhf.c:68: return r;
      0003B2 E5*00            [12]  792 	mov	a,_bpx
      0003B4 24 04            [12]  793 	add	a,#0x04
      0003B6 F8               [12]  794 	mov	r0,a
      0003B7 E2               [24]  795 	movx	a,@r0
      0003B8 FC               [12]  796 	mov	r4,a
      0003B9 08               [12]  797 	inc	r0
      0003BA E2               [24]  798 	movx	a,@r0
      0003BB FD               [12]  799 	mov	r5,a
      0003BC 08               [12]  800 	inc	r0
      0003BD E2               [24]  801 	movx	a,@r0
      0003BE FE               [12]  802 	mov	r6,a
      0003BF 08               [12]  803 	inc	r0
      0003C0 E2               [24]  804 	movx	a,@r0
      0003C1 8C 82            [24]  805 	mov	dpl,r4
      0003C3 8D 83            [24]  806 	mov	dph,r5
      0003C5 8E F0            [24]  807 	mov	b,r6
      0003C7 85*00 81         [24]  808 	mov	sp,_bp
      0003CA D0*00            [24]  809 	pop	_bp
      0003CC C5*00            [12]  810 	xch	a,_bpx
      0003CE F8               [12]  811 	mov	r0,a
      0003CF 18               [12]  812 	dec	r0
      0003D0 E2               [24]  813 	movx	a,@r0
      0003D1 C5*00            [12]  814 	xch	a,_bpx
      0003D3 88*00            [24]  815 	mov	_spx,r0
      0003D5 22               [24]  816 	ret
                                    817 	.area CSEG    (CODE)
                                    818 	.area CONST   (CODE)
                                    819 	.area XINIT   (CODE)
                                    820 	.area CABS    (ABS,CODE)
